(dp0
S'Myers_07'
p1
S'Brain'
p2
sS'Zeller_10'
p3
S'Monocyte'
p4
sS'Wright_14_pruned_e5'
p5
S'blood'
p6
sS'Schadt_08'
p7
S'Liver'
p8
sS'Dixon_07'
p9
S'Lymphoblastoid'
p10
sS'Merged_08212015_pruned_LD02'
p11
S'Combination of: Dixon_07, Duan_08, Liang_2012, Muther_12, Myers_07, Schadt_08, Wright_14_pruned_e6_2 and Zeller_10, pruned by LD 0.2'
p12
sS'Wright_14_pruned_e6_2'
p13
S'blood'
p14
sS'Duan_08'
p15
S'Lymphoblastoid'
p16
sS'Wright_14_pruned_e6_1'
p17
S'blood'
p18
sS'Merged_08212015'
p19
S'Combination of: Dixon_07, Duan_08, Liang_2012, Muther_12, Myers_07, Schadt_08, Wright_14_pruned_e6_2 and Zeller_10'
p20
sS'Merged_08212015_pruned_LD85'
p21
S'Combination of: Dixon_07, Duan_08, Liang_2012, Muther_12, Myers_07, Schadt_08, Wright_14_pruned_e6_2 and Zeller_10, pruned by LD 0.85'
p22
sS'Liang_2012'
p23
S'lymphoblastoid'
p24
sS'TCGA_JunWang'
p25
S'eQTL data generated from TCGA by Jun Wang'
p26
sS'Muther_12'
p27
S'Adipose'
p28
s.