(dp0
S'Perls_12_snp135_maf---Dixon_07'
p1
(lp2
(S'Perls_12_snp135_maf'
p3
S'Dixon_07'
p4
S'ABCA4'
p5
S'7.08e-02'
p6
S'1.00e+00'
p7
tp8
a(S'Perls_12_snp135_maf'
p9
S'Dixon_07'
p10
S'ABCA7'
p11
S'6.04e-01'
p12
S'1.00e+00'
p13
tp14
a(S'Perls_12_snp135_maf'
p15
S'Dixon_07'
p16
S'ACAD8'
p17
S'5.22e-01'
p18
S'1.00e+00'
p19
tp20
a(S'Perls_12_snp135_maf'
p21
S'Dixon_07'
p22
S'ACADL'
p23
S'2.18e-01'
p24
S'1.00e+00'
p25
tp26
a(S'Perls_12_snp135_maf'
p27
S'Dixon_07'
p28
S'ADAM15'
p29
S'2.42e-01'
p30
S'1.00e+00'
p31
tp32
a(S'Perls_12_snp135_maf'
p33
S'Dixon_07'
p34
S'AFF2'
p35
S'6.09e-01'
p36
S'1.00e+00'
p37
tp38
a(S'dummy_GWAS'
p39
S'dummy_eQTL'
p40
S'dummy_gene'
p41
S'-1'
p42
S'-1'
p43
tp44
a(S'Perls_12_snp135_maf'
p45
S'Dixon_07'
p46
S'AIP'
p47
S'8.63e-01'
p48
S'1.00e+00'
p49
tp50
a(S'Perls_12_snp135_maf'
p51
S'Dixon_07'
p52
S'AMZ1'
p53
S'6.67e-01'
p54
S'1.00e+00'
p55
tp56
a(S'Perls_12_snp135_maf'
p57
S'Dixon_07'
p58
S'AP4S1'
p59
S'6.67e-01'
p60
S'1.00e+00'
p61
tp62
a(S'Perls_12_snp135_maf'
p63
S'Dixon_07'
p64
S'APBB1IP'
p65
S'4.50e-01'
p66
S'1.00e+00'
p67
tp68
a(S'Perls_12_snp135_maf'
p69
S'Dixon_07'
p70
S'APOBEC1'
p71
S'1.71e-03'
p72
S'8.51e-01'
p73
tp74
a(S'Perls_12_snp135_maf'
p75
S'Dixon_07'
p76
S'ARHGAP27'
p77
S'5.01e-01'
p78
S'1.00e+00'
p79
tp80
a(S'Perls_12_snp135_maf'
p81
S'Dixon_07'
p82
S'ARID2'
p83
S'1.59e-03'
p84
S'8.51e-01'
p85
tp86
a(S'Perls_12_snp135_maf'
p87
S'Dixon_07'
p88
S'ASPSCR1'
p89
S'9.02e-01'
p90
S'1.00e+00'
p91
tp92
ag44
a(S'Perls_12_snp135_maf'
p93
S'Dixon_07'
p94
S'ATP10A'
p95
S'3.50e-01'
p96
S'1.00e+00'
p97
tp98
ag44
a(S'Perls_12_snp135_maf'
p99
S'Dixon_07'
p100
S'AXL'
p101
S'8.35e-01'
p102
S'1.00e+00'
p103
tp104
a(S'Perls_12_snp135_maf'
p105
S'Dixon_07'
p106
S'BAG4'
p107
S'8.78e-01'
p108
S'1.00e+00'
p109
tp110
a(S'Perls_12_snp135_maf'
p111
S'Dixon_07'
p112
S'C21orf29'
p113
S'3.15e-02'
p114
S'1.00e+00'
p115
tp116
a(S'Perls_12_snp135_maf'
p117
S'Dixon_07'
p118
S'CASP10'
p119
S'1.32e-03'
p120
S'8.51e-01'
p121
tp122
a(S'Perls_12_snp135_maf'
p123
S'Dixon_07'
p124
S'CD1C'
p125
S'2.81e-01'
p126
S'1.00e+00'
p127
tp128
a(S'Perls_12_snp135_maf'
p129
S'Dixon_07'
p130
S'CD81'
p131
S'6.65e-01'
p132
S'1.00e+00'
p133
tp134
a(S'Perls_12_snp135_maf'
p135
S'Dixon_07'
p136
S'CD99L2'
p137
S'7.79e-01'
p138
S'1.00e+00'
p139
tp140
a(S'Perls_12_snp135_maf'
p141
S'Dixon_07'
p142
S'CDK6'
p143
S'4.37e-01'
p144
S'1.00e+00'
p145
tp146
a(S'Perls_12_snp135_maf'
p147
S'Dixon_07'
p148
S'CLDN20'
p149
S'9.80e-01'
p150
S'1.00e+00'
p151
tp152
a(S'Perls_12_snp135_maf'
p153
S'Dixon_07'
p154
S'CLDN23'
p155
S'3.90e-01'
p156
S'1.00e+00'
p157
tp158
a(S'Perls_12_snp135_maf'
p159
S'Dixon_07'
p160
S'COL4A3BP'
p161
S'1.25e-03'
p162
S'8.51e-01'
p163
tp164
a(S'Perls_12_snp135_maf'
p165
S'Dixon_07'
p166
S'CRIM1'
p167
S'9.10e-01'
p168
S'1.00e+00'
p169
tp170
a(S'Perls_12_snp135_maf'
p171
S'Dixon_07'
p172
S'CTDSPL'
p173
S'9.91e-01'
p174
S'1.00e+00'
p175
tp176
ag44
a(S'Perls_12_snp135_maf'
p177
S'Dixon_07'
p178
S'DAPK2'
p179
S'6.36e-01'
p180
S'1.00e+00'
p181
tp182
a(S'Perls_12_snp135_maf'
p183
S'Dixon_07'
p184
S'DEFB127'
p185
S'1.94e-01'
p186
S'1.00e+00'
p187
tp188
a(S'Perls_12_snp135_maf'
p189
S'Dixon_07'
p190
S'DENND1A'
p191
S'1.90e-01'
p192
S'1.00e+00'
p193
tp194
a(S'Perls_12_snp135_maf'
p195
S'Dixon_07'
p196
S'DHDH'
p197
S'2.51e-01'
p198
S'1.00e+00'
p199
tp200
ag44
a(S'Perls_12_snp135_maf'
p201
S'Dixon_07'
p202
S'DNAJC13'
p203
S'5.14e-01'
p204
S'1.00e+00'
p205
tp206
a(S'Perls_12_snp135_maf'
p207
S'Dixon_07'
p208
S'DUSP8'
p209
S'6.70e-04'
p210
S'8.51e-01'
p211
tp212
a(S'Perls_12_snp135_maf'
p213
S'Dixon_07'
p214
S'F7'
p215
S'9.43e-01'
p216
S'1.00e+00'
p217
tp218
ag44
ag44
a(S'Perls_12_snp135_maf'
p219
S'Dixon_07'
p220
S'FBXL7'
p221
S'9.33e-01'
p222
S'1.00e+00'
p223
tp224
a(S'Perls_12_snp135_maf'
p225
S'Dixon_07'
p226
S'FCGR3B'
p227
S'8.56e-01'
p228
S'1.00e+00'
p229
tp230
a(S'Perls_12_snp135_maf'
p231
S'Dixon_07'
p232
S'FER'
p233
S'9.18e-01'
p234
S'1.00e+00'
p235
tp236
a(S'Perls_12_snp135_maf'
p237
S'Dixon_07'
p238
S'FHL3'
p239
S'2.77e-01'
p240
S'1.00e+00'
p241
tp242
a(S'Perls_12_snp135_maf'
p243
S'Dixon_07'
p244
S'FZD1'
p245
S'1.91e-03'
p246
S'8.51e-01'
p247
tp248
a(S'Perls_12_snp135_maf'
p249
S'Dixon_07'
p250
S'GALNT11'
p251
S'6.13e-01'
p252
S'1.00e+00'
p253
tp254
a(S'Perls_12_snp135_maf'
p255
S'Dixon_07'
p256
S'GFI1'
p257
S'8.28e-01'
p258
S'1.00e+00'
p259
tp260
ag44
a(S'Perls_12_snp135_maf'
p261
S'Dixon_07'
p262
S'GOLGA7'
p263
S'8.84e-01'
p264
S'1.00e+00'
p265
tp266
a(S'Perls_12_snp135_maf'
p267
S'Dixon_07'
p268
S'GP2'
p269
S'3.00e-01'
p270
S'1.00e+00'
p271
tp272
a(S'Perls_12_snp135_maf'
p273
S'Dixon_07'
p274
S'GPR146'
p275
S'3.91e-01'
p276
S'1.00e+00'
p277
tp278
a(S'Perls_12_snp135_maf'
p279
S'Dixon_07'
p280
S'GPR68'
p281
S'5.33e-01'
p282
S'1.00e+00'
p283
tp284
a(S'Perls_12_snp135_maf'
p285
S'Dixon_07'
p286
S'H6PD'
p287
S'6.12e-03'
p288
S'1.00e+00'
p289
tp290
a(S'Perls_12_snp135_maf'
p291
S'Dixon_07'
p292
S'HAO1'
p293
S'3.35e-04'
p294
S'8.51e-01'
p295
tp296
a(S'Perls_12_snp135_maf'
p297
S'Dixon_07'
p298
S'HIST1H2AC'
p299
S'7.39e-01'
p300
S'1.00e+00'
p301
tp302
a(S'Perls_12_snp135_maf'
p303
S'Dixon_07'
p304
S'HMGA1'
p305
S'7.56e-02'
p306
S'1.00e+00'
p307
tp308
a(S'Perls_12_snp135_maf'
p309
S'Dixon_07'
p310
S'HYDIN'
p311
S'4.92e-01'
p312
S'1.00e+00'
p313
tp314
a(S'Perls_12_snp135_maf'
p315
S'Dixon_07'
p316
S'IFNA2'
p317
S'2.87e-04'
p318
S'8.51e-01'
p319
tp320
a(S'Perls_12_snp135_maf'
p321
S'Dixon_07'
p322
S'IGFBP4'
p323
S'9.68e-01'
p324
S'1.00e+00'
p325
tp326
ag44
a(S'Perls_12_snp135_maf'
p327
S'Dixon_07'
p328
S'ISYNA1'
p329
S'1.15e-03'
p330
S'8.51e-01'
p331
tp332
a(S'Perls_12_snp135_maf'
p333
S'Dixon_07'
p334
S'ITPK1'
p335
S'6.43e-01'
p336
S'1.00e+00'
p337
tp338
a(S'Perls_12_snp135_maf'
p339
S'Dixon_07'
p340
S'KCTD12'
p341
S'7.34e-01'
p342
S'1.00e+00'
p343
tp344
a(S'Perls_12_snp135_maf'
p345
S'Dixon_07'
p346
S'KIAA0195'
p347
S'7.90e-02'
p348
S'1.00e+00'
p349
tp350
ag44
ag44
a(S'Perls_12_snp135_maf'
p351
S'Dixon_07'
p352
S'LRRC8E'
p353
S'9.99e-04'
p354
S'8.51e-01'
p355
tp356
a(S'Perls_12_snp135_maf'
p357
S'Dixon_07'
p358
S'LTBP4'
p359
S'3.11e-01'
p360
S'1.00e+00'
p361
tp362
a(S'Perls_12_snp135_maf'
p363
S'Dixon_07'
p364
S'LY6H'
p365
S'6.71e-04'
p366
S'8.51e-01'
p367
tp368
a(S'Perls_12_snp135_maf'
p369
S'Dixon_07'
p370
S'MAGED2'
p371
S'8.84e-05'
p372
S'8.51e-01'
p373
tp374
a(S'Perls_12_snp135_maf'
p375
S'Dixon_07'
p376
S'MAPK8IP1'
p377
S'1.00e+00'
p378
S'1.00e+00'
p379
tp380
a(S'Perls_12_snp135_maf'
p381
S'Dixon_07'
p382
S'MATN2'
p383
S'7.00e-01'
p384
S'1.00e+00'
p385
tp386
ag44
a(S'Perls_12_snp135_maf'
p387
S'Dixon_07'
p388
S'MFHAS1'
p389
S'3.39e-01'
p390
S'1.00e+00'
p391
tp392
a(S'Perls_12_snp135_maf'
p393
S'Dixon_07'
p394
S'MPHOSPH6'
p395
S'2.62e-01'
p396
S'1.00e+00'
p397
tp398
a(S'Perls_12_snp135_maf'
p399
S'Dixon_07'
p400
S'MSH3'
p401
S'1.48e-03'
p402
S'8.51e-01'
p403
tp404
a(S'Perls_12_snp135_maf'
p405
S'Dixon_07'
p406
S'MYLK2'
p407
S'6.36e-01'
p408
S'1.00e+00'
p409
tp410
a(S'Perls_12_snp135_maf'
p411
S'Dixon_07'
p412
S'MYO1G'
p413
S'7.98e-02'
p414
S'1.00e+00'
p415
tp416
a(S'Perls_12_snp135_maf'
p417
S'Dixon_07'
p418
S'NAV1'
p419
S'1.78e-01'
p420
S'1.00e+00'
p421
tp422
a(S'Perls_12_snp135_maf'
p423
S'Dixon_07'
p424
S'NFATC3'
p425
S'9.29e-01'
p426
S'1.00e+00'
p427
tp428
a(S'Perls_12_snp135_maf'
p429
S'Dixon_07'
p430
S'NOTCH4'
p431
S'8.58e-01'
p432
S'1.00e+00'
p433
tp434
a(S'Perls_12_snp135_maf'
p435
S'Dixon_07'
p436
S'NPL'
p437
S'8.42e-01'
p438
S'1.00e+00'
p439
tp440
a(S'Perls_12_snp135_maf'
p441
S'Dixon_07'
p442
S'NR2F1'
p443
S'6.33e-04'
p444
S'8.51e-01'
p445
tp446
ag44
ag44
a(S'Perls_12_snp135_maf'
p447
S'Dixon_07'
p448
S'OR4F21'
p449
S'1.12e-01'
p450
S'1.00e+00'
p451
tp452
a(S'Perls_12_snp135_maf'
p453
S'Dixon_07'
p454
S'OR8B2'
p455
S'3.33e-04'
p456
S'8.51e-01'
p457
tp458
a(S'Perls_12_snp135_maf'
p459
S'Dixon_07'
p460
S'P2RX5'
p461
S'8.07e-01'
p462
S'1.00e+00'
p463
tp464
a(S'Perls_12_snp135_maf'
p465
S'Dixon_07'
p466
S'PAGE2B'
p467
S'6.71e-04'
p468
S'8.51e-01'
p469
tp470
a(S'Perls_12_snp135_maf'
p471
S'Dixon_07'
p472
S'PALMD'
p473
S'3.95e-01'
p474
S'1.00e+00'
p475
tp476
a(S'Perls_12_snp135_maf'
p477
S'Dixon_07'
p478
S'PCCB'
p479
S'8.15e-01'
p480
S'1.00e+00'
p481
tp482
ag44
a(S'Perls_12_snp135_maf'
p483
S'Dixon_07'
p484
S'PREX1'
p485
S'6.94e-01'
p486
S'1.00e+00'
p487
tp488
a(S'Perls_12_snp135_maf'
p489
S'Dixon_07'
p490
S'PRLR'
p491
S'6.52e-01'
p492
S'1.00e+00'
p493
tp494
a(S'Perls_12_snp135_maf'
p495
S'Dixon_07'
p496
S'PRPS2'
p497
S'1.55e-01'
p498
S'1.00e+00'
p499
tp500
a(S'Perls_12_snp135_maf'
p501
S'Dixon_07'
p502
S'PRRG1'
p503
S'4.88e-01'
p504
S'1.00e+00'
p505
tp506
a(S'Perls_12_snp135_maf'
p507
S'Dixon_07'
p508
S'PRUNE'
p509
S'1.78e-01'
p510
S'1.00e+00'
p511
tp512
a(S'Perls_12_snp135_maf'
p513
S'Dixon_07'
p514
S'PTPRB'
p515
S'5.28e-01'
p516
S'1.00e+00'
p517
tp518
a(S'Perls_12_snp135_maf'
p519
S'Dixon_07'
p520
S'RAB30'
p521
S'3.19e-01'
p522
S'1.00e+00'
p523
tp524
a(S'Perls_12_snp135_maf'
p525
S'Dixon_07'
p526
S'RAB36'
p527
S'3.09e-01'
p528
S'1.00e+00'
p529
tp530
a(S'Perls_12_snp135_maf'
p531
S'Dixon_07'
p532
S'RBM5'
p533
S'1.06e-03'
p534
S'8.51e-01'
p535
tp536
a(S'Perls_12_snp135_maf'
p537
S'Dixon_07'
p538
S'RHEB'
p539
S'6.76e-01'
p540
S'1.00e+00'
p541
tp542
a(S'Perls_12_snp135_maf'
p543
S'Dixon_07'
p544
S'RHOT2'
p545
S'2.49e-01'
p546
S'1.00e+00'
p547
tp548
ag44
a(S'Perls_12_snp135_maf'
p549
S'Dixon_07'
p550
S'RNF13'
p551
S'1.00e-03'
p552
S'8.51e-01'
p553
tp554
a(S'Perls_12_snp135_maf'
p555
S'Dixon_07'
p556
S'ROPN1'
p557
S'1.04e-03'
p558
S'8.51e-01'
p559
tp560
ag44
a(S'Perls_12_snp135_maf'
p561
S'Dixon_07'
p562
S'SCD'
p563
S'5.94e-01'
p564
S'1.00e+00'
p565
tp566
a(S'Perls_12_snp135_maf'
p567
S'Dixon_07'
p568
S'SCN3B'
p569
S'1.91e-01'
p570
S'1.00e+00'
p571
tp572
a(S'Perls_12_snp135_maf'
p573
S'Dixon_07'
p574
S'SCNN1A'
p575
S'1.79e-01'
p576
S'1.00e+00'
p577
tp578
a(S'Perls_12_snp135_maf'
p579
S'Dixon_07'
p580
S'SECTM1'
p581
S'8.03e-04'
p582
S'8.51e-01'
p583
tp584
ag44
a(S'Perls_12_snp135_maf'
p585
S'Dixon_07'
p586
S'SERTAD2'
p587
S'1.80e-01'
p588
S'1.00e+00'
p589
tp590
a(S'Perls_12_snp135_maf'
p591
S'Dixon_07'
p592
S'SLC11A2'
p593
S'9.48e-01'
p594
S'1.00e+00'
p595
tp596
a(S'Perls_12_snp135_maf'
p597
S'Dixon_07'
p598
S'SLC18A1'
p599
S'9.48e-01'
p600
S'1.00e+00'
p601
tp602
a(S'Perls_12_snp135_maf'
p603
S'Dixon_07'
p604
S'SLC24A4'
p605
S'1.77e-01'
p606
S'1.00e+00'
p607
tp608
a(S'Perls_12_snp135_maf'
p609
S'Dixon_07'
p610
S'SLC34A2'
p611
S'7.69e-01'
p612
S'1.00e+00'
p613
tp614
a(S'Perls_12_snp135_maf'
p615
S'Dixon_07'
p616
S'SLC35F4'
p617
S'9.87e-02'
p618
S'1.00e+00'
p619
tp620
a(S'Perls_12_snp135_maf'
p621
S'Dixon_07'
p622
S'SLC4A7'
p623
S'1.33e-03'
p624
S'8.51e-01'
p625
tp626
a(S'Perls_12_snp135_maf'
p627
S'Dixon_07'
p628
S'SLC6A9'
p629
S'5.75e-01'
p630
S'1.00e+00'
p631
tp632
a(S'Perls_12_snp135_maf'
p633
S'Dixon_07'
p634
S'SORBS3'
p635
S'2.29e-01'
p636
S'1.00e+00'
p637
tp638
a(S'Perls_12_snp135_maf'
p639
S'Dixon_07'
p640
S'SPHAR'
p641
S'1.00e+00'
p642
S'1.00e+00'
p643
tp644
a(S'Perls_12_snp135_maf'
p645
S'Dixon_07'
p646
S'SRPR'
p647
S'1.75e-03'
p648
S'8.51e-01'
p649
tp650
a(S'Perls_12_snp135_maf'
p651
S'Dixon_07'
p652
S'STX18'
p653
S'5.61e-01'
p654
S'1.00e+00'
p655
tp656
a(S'Perls_12_snp135_maf'
p657
S'Dixon_07'
p658
S'SURF2'
p659
S'3.76e-04'
p660
S'8.51e-01'
p661
tp662
a(S'Perls_12_snp135_maf'
p663
S'Dixon_07'
p664
S'SYK'
p665
S'3.36e-01'
p666
S'1.00e+00'
p667
tp668
a(S'Perls_12_snp135_maf'
p669
S'Dixon_07'
p670
S'SYT11'
p671
S'7.15e-01'
p672
S'1.00e+00'
p673
tp674
a(S'Perls_12_snp135_maf'
p675
S'Dixon_07'
p676
S'TBC1D12'
p677
S'1.34e-01'
p678
S'1.00e+00'
p679
tp680
a(S'Perls_12_snp135_maf'
p681
S'Dixon_07'
p682
S'TBX1'
p683
S'4.40e-01'
p684
S'1.00e+00'
p685
tp686
a(S'Perls_12_snp135_maf'
p687
S'Dixon_07'
p688
S'TCERG1'
p689
S'1.99e-03'
p690
S'8.51e-01'
p691
tp692
a(S'Perls_12_snp135_maf'
p693
S'Dixon_07'
p694
S'TERT'
p695
S'4.45e-01'
p696
S'1.00e+00'
p697
tp698
a(S'Perls_12_snp135_maf'
p699
S'Dixon_07'
p700
S'TEX15'
p701
S'1.91e-03'
p702
S'8.51e-01'
p703
tp704
a(S'Perls_12_snp135_maf'
p705
S'Dixon_07'
p706
S'TFPI2'
p707
S'1.60e-03'
p708
S'8.51e-01'
p709
tp710
ag44
ag44
a(S'Perls_12_snp135_maf'
p711
S'Dixon_07'
p712
S'TMEM60'
p713
S'1.97e-03'
p714
S'8.51e-01'
p715
tp716
a(S'Perls_12_snp135_maf'
p717
S'Dixon_07'
p718
S'TMEM62'
p719
S'1.90e-03'
p720
S'8.51e-01'
p721
tp722
a(S'Perls_12_snp135_maf'
p723
S'Dixon_07'
p724
S'TMF1'
p725
S'5.97e-02'
p726
S'1.00e+00'
p727
tp728
a(S'Perls_12_snp135_maf'
p729
S'Dixon_07'
p730
S'TNPO3'
p731
S'6.63e-01'
p732
S'1.00e+00'
p733
tp734
a(S'Perls_12_snp135_maf'
p735
S'Dixon_07'
p736
S'TPST1'
p737
S'3.09e-01'
p738
S'1.00e+00'
p739
tp740
a(S'Perls_12_snp135_maf'
p741
S'Dixon_07'
p742
S'TRIM38'
p743
S'5.16e-01'
p744
S'1.00e+00'
p745
tp746
a(S'Perls_12_snp135_maf'
p747
S'Dixon_07'
p748
S'USP4'
p749
S'1.27e-01'
p750
S'1.00e+00'
p751
tp752
a(S'Perls_12_snp135_maf'
p753
S'Dixon_07'
p754
S'USP53'
p755
S'9.36e-01'
p756
S'1.00e+00'
p757
tp758
a(S'Perls_12_snp135_maf'
p759
S'Dixon_07'
p760
S'YY1AP1'
p761
S'5.43e-01'
p762
S'1.00e+00'
p763
tp764
ag44
a(S'Perls_12_snp135_maf'
p765
S'Dixon_07'
p766
S'ZBTB20'
p767
S'9.90e-01'
p768
S'1.00e+00'
p769
tp770
a(S'Perls_12_snp135_maf'
p771
S'Dixon_07'
p772
S'ZNF208'
p773
S'7.66e-04'
p774
S'8.51e-01'
p775
tp776
a(S'Perls_12_snp135_maf'
p777
S'Dixon_07'
p778
S'ZNF570'
p779
S'3.70e-01'
p780
S'1.00e+00'
p781
tp782
a(S'Perls_12_snp135_maf'
p783
S'Dixon_07'
p784
S'ZNF574'
p785
S'8.24e-01'
p786
S'1.00e+00'
p787
tp788
a(S'Perls_12_snp135_maf'
p789
S'Dixon_07'
p790
S'ZNF678'
p791
S'1.91e-03'
p792
S'8.51e-01'
p793
tp794
a(S'Perls_12_snp135_maf'
p795
S'Dixon_07'
p796
S'ZNF84'
p797
S'2.98e-02'
p798
S'1.00e+00'
p799
tp800
a(S'Perls_12_snp135_maf'
p801
S'Dixon_07'
p802
S'ZRANB3'
p803
S'6.68e-01'
p804
S'1.00e+00'
p805
tp806
a(S'Perls_12_snp135_maf'
p807
S'Dixon_07'
p808
S'ZSCAN1'
p809
S'4.47e-01'
p810
S'1.00e+00'
p811
tp812
asS'Longevity_2014_Age85---Zeller_10'
p813
(lp814
(S'Longevity_2014_Age85'
p815
S'Zeller_10'
p816
S'ABCA4'
p817
S'4.08e-01'
p818
S'9.93e-01'
p819
tp820
a(S'Longevity_2014_Age85'
p821
S'Zeller_10'
p822
S'ABCA7'
p823
S'4.68e-01'
p824
S'1.00e+00'
p825
tp826
a(S'Longevity_2014_Age85'
p827
S'Zeller_10'
p828
S'ACAD8'
p829
S'3.40e-02'
p830
S'9.71e-01'
p831
tp832
ag44
a(S'Longevity_2014_Age85'
p833
S'Zeller_10'
p834
S'ADAM15'
p835
S'4.41e-01'
p836
S'9.93e-01'
p837
tp838
a(S'Longevity_2014_Age85'
p839
S'Zeller_10'
p840
S'AFF2'
p841
S'5.51e-01'
p842
S'1.00e+00'
p843
tp844
a(S'Longevity_2014_Age85'
p845
S'Zeller_10'
p846
S'AIFM2'
p847
S'1.26e-03'
p848
S'7.27e-01'
p849
tp850
a(S'Longevity_2014_Age85'
p851
S'Zeller_10'
p852
S'AIP'
p853
S'3.33e-01'
p854
S'9.92e-01'
p855
tp856
a(S'Longevity_2014_Age85'
p857
S'Zeller_10'
p858
S'AMZ1'
p859
S'4.18e-02'
p860
S'9.71e-01'
p861
tp862
a(S'Longevity_2014_Age85'
p863
S'Zeller_10'
p864
S'AP4S1'
p865
S'1.48e-03'
p866
S'7.56e-01'
p867
tp868
a(S'Longevity_2014_Age85'
p869
S'Zeller_10'
p870
S'APBB1IP'
p871
S'1.86e-04'
p872
S'5.74e-01'
p873
tp874
ag44
ag44
a(S'Longevity_2014_Age85'
p875
S'Zeller_10'
p876
S'ARID2'
p877
S'3.42e-01'
p878
S'9.92e-01'
p879
tp880
a(S'Longevity_2014_Age85'
p881
S'Zeller_10'
p882
S'ASPSCR1'
p883
S'6.82e-01'
p884
S'1.00e+00'
p885
tp886
a(S'Longevity_2014_Age85'
p887
S'Zeller_10'
p888
S'ATG2B'
p889
S'4.75e-04'
p890
S'6.83e-01'
p891
tp892
a(S'Longevity_2014_Age85'
p893
S'Zeller_10'
p894
S'ATP10A'
p895
S'6.72e-04'
p896
S'6.83e-01'
p897
tp898
a(S'Longevity_2014_Age85'
p899
S'Zeller_10'
p900
S'ATRIP'
p901
S'1.41e-03'
p902
S'7.56e-01'
p903
tp904
a(S'Longevity_2014_Age85'
p905
S'Zeller_10'
p906
S'AXL'
p907
S'6.97e-01'
p908
S'1.00e+00'
p909
tp910
a(S'Longevity_2014_Age85'
p911
S'Zeller_10'
p912
S'BAG4'
p913
S'1.85e-02'
p914
S'9.59e-01'
p915
tp916
ag44
a(S'Longevity_2014_Age85'
p917
S'Zeller_10'
p918
S'CASP10'
p919
S'9.70e-01'
p920
S'1.00e+00'
p921
tp922
a(S'Longevity_2014_Age85'
p923
S'Zeller_10'
p924
S'CD1C'
p925
S'9.57e-01'
p926
S'1.00e+00'
p927
tp928
a(S'Longevity_2014_Age85'
p929
S'Zeller_10'
p930
S'CD81'
p931
S'7.69e-05'
p932
S'3.36e-01'
p933
tp934
a(S'Longevity_2014_Age85'
p935
S'Zeller_10'
p936
S'CD99L2'
p937
S'8.44e-01'
p938
S'1.00e+00'
p939
tp940
a(S'Longevity_2014_Age85'
p941
S'Zeller_10'
p942
S'CDK6'
p943
S'7.30e-01'
p944
S'1.00e+00'
p945
tp946
a(S'Longevity_2014_Age85'
p947
S'Zeller_10'
p948
S'CLDN20'
p949
S'6.90e-01'
p950
S'1.00e+00'
p951
tp952
a(S'Longevity_2014_Age85'
p953
S'Zeller_10'
p954
S'CLDN23'
p955
S'7.13e-01'
p956
S'1.00e+00'
p957
tp958
a(S'Longevity_2014_Age85'
p959
S'Zeller_10'
p960
S'COL4A3BP'
p961
S'2.37e-01'
p962
S'9.90e-01'
p963
tp964
a(S'Longevity_2014_Age85'
p965
S'Zeller_10'
p966
S'CRIM1'
p967
S'1.59e-01'
p968
S'9.80e-01'
p969
tp970
a(S'Longevity_2014_Age85'
p971
S'Zeller_10'
p972
S'CTDSPL'
p973
S'1.65e-01'
p974
S'9.80e-01'
p975
tp976
a(S'Longevity_2014_Age85'
p977
S'Zeller_10'
p978
S'CWC15'
p979
S'2.50e-01'
p980
S'9.91e-01'
p981
tp982
a(S'Longevity_2014_Age85'
p983
S'Zeller_10'
p984
S'DAPK2'
p985
S'9.77e-01'
p986
S'1.00e+00'
p987
tp988
ag44
a(S'Longevity_2014_Age85'
p989
S'Zeller_10'
p990
S'DENND1A'
p991
S'2.19e-01'
p992
S'9.85e-01'
p993
tp994
a(S'Longevity_2014_Age85'
p995
S'Zeller_10'
p996
S'DHDH'
p997
S'1.95e-03'
p998
S'7.59e-01'
p999
tp1000
a(S'Longevity_2014_Age85'
p1001
S'Zeller_10'
p1002
S'DKFZP761P0423'
p1003
S'2.99e-01'
p1004
S'9.92e-01'
p1005
tp1006
a(S'Longevity_2014_Age85'
p1007
S'Zeller_10'
p1008
S'DNAJC13'
p1009
S'4.66e-02'
p1010
S'9.71e-01'
p1011
tp1012
a(S'Longevity_2014_Age85'
p1013
S'Zeller_10'
p1014
S'DUSP8'
p1015
S'7.48e-02'
p1016
S'9.71e-01'
p1017
tp1018
ag44
a(S'Longevity_2014_Age85'
p1019
S'Zeller_10'
p1020
S'FADS6'
p1021
S'1.67e-03'
p1022
S'7.59e-01'
p1023
tp1024
a(S'Longevity_2014_Age85'
p1025
S'Zeller_10'
p1026
S'FALZ'
p1027
S'3.67e-05'
p1028
S'3.36e-01'
p1029
tp1030
a(S'Longevity_2014_Age85'
p1031
S'Zeller_10'
p1032
S'FBXL7'
p1033
S'2.87e-01'
p1034
S'9.92e-01'
p1035
tp1036
a(S'Longevity_2014_Age85'
p1037
S'Zeller_10'
p1038
S'FCGR3B'
p1039
S'5.42e-01'
p1040
S'1.00e+00'
p1041
tp1042
a(S'Longevity_2014_Age85'
p1043
S'Zeller_10'
p1044
S'FER'
p1045
S'5.75e-01'
p1046
S'1.00e+00'
p1047
tp1048
a(S'Longevity_2014_Age85'
p1049
S'Zeller_10'
p1050
S'FHL3'
p1051
S'7.97e-01'
p1052
S'1.00e+00'
p1053
tp1054
a(S'Longevity_2014_Age85'
p1055
S'Zeller_10'
p1056
S'FZD1'
p1057
S'2.06e-01'
p1058
S'9.82e-01'
p1059
tp1060
a(S'Longevity_2014_Age85'
p1061
S'Zeller_10'
p1062
S'GALNT11'
p1063
S'1.48e-02'
p1064
S'9.56e-01'
p1065
tp1066
a(S'Longevity_2014_Age85'
p1067
S'Zeller_10'
p1068
S'GFI1'
p1069
S'8.01e-01'
p1070
S'1.00e+00'
p1071
tp1072
a(S'Longevity_2014_Age85'
p1073
S'Zeller_10'
p1074
S'GNG8'
p1075
S'2.75e-01'
p1076
S'9.92e-01'
p1077
tp1078
a(S'Longevity_2014_Age85'
p1079
S'Zeller_10'
p1080
S'GOLGA7'
p1081
S'1.46e-03'
p1082
S'7.56e-01'
p1083
tp1084
a(S'Longevity_2014_Age85'
p1085
S'Zeller_10'
p1086
S'GP2'
p1087
S'3.59e-04'
p1088
S'6.53e-01'
p1089
tp1090
a(S'Longevity_2014_Age85'
p1091
S'Zeller_10'
p1092
S'GPR146'
p1093
S'7.22e-04'
p1094
S'6.83e-01'
p1095
tp1096
a(S'Longevity_2014_Age85'
p1097
S'Zeller_10'
p1098
S'GPR68'
p1099
S'1.79e-03'
p1100
S'7.59e-01'
p1101
tp1102
a(S'Longevity_2014_Age85'
p1103
S'Zeller_10'
p1104
S'H6PD'
p1105
S'1.51e-01'
p1106
S'9.80e-01'
p1107
tp1108
a(S'Longevity_2014_Age85'
p1109
S'Zeller_10'
p1110
S'HAO1'
p1111
S'8.46e-01'
p1112
S'1.00e+00'
p1113
tp1114
a(S'Longevity_2014_Age85'
p1115
S'Zeller_10'
p1116
S'HIST1H2AC'
p1117
S'8.41e-02'
p1118
S'9.71e-01'
p1119
tp1120
a(S'Longevity_2014_Age85'
p1121
S'Zeller_10'
p1122
S'HMGA1'
p1123
S'1.92e-03'
p1124
S'7.59e-01'
p1125
tp1126
ag44
ag44
a(S'Longevity_2014_Age85'
p1127
S'Zeller_10'
p1128
S'IGFBP4'
p1129
S'4.94e-03'
p1130
S'9.04e-01'
p1131
tp1132
a(S'Longevity_2014_Age85'
p1133
S'Zeller_10'
p1134
S'ISCU'
p1135
S'7.00e-01'
p1136
S'1.00e+00'
p1137
tp1138
ag44
a(S'Longevity_2014_Age85'
p1139
S'Zeller_10'
p1140
S'ITPK1'
p1141
S'3.19e-03'
p1142
S'8.09e-01'
p1143
tp1144
a(S'Longevity_2014_Age85'
p1145
S'Zeller_10'
p1146
S'KCTD12'
p1147
S'1.34e-01'
p1148
S'9.80e-01'
p1149
tp1150
ag44
a(S'Longevity_2014_Age85'
p1151
S'Zeller_10'
p1152
S'KRTAP10-9'
p1153
S'9.82e-01'
p1154
S'1.00e+00'
p1155
tp1156
a(S'Longevity_2014_Age85'
p1157
S'Zeller_10'
p1158
S'LRRC37A4'
p1159
S'2.55e-04'
p1160
S'5.74e-01'
p1161
tp1162
a(S'Longevity_2014_Age85'
p1163
S'Zeller_10'
p1164
S'LRRC8E'
p1165
S'6.42e-01'
p1166
S'1.00e+00'
p1167
tp1168
a(S'Longevity_2014_Age85'
p1169
S'Zeller_10'
p1170
S'LTBP4'
p1171
S'1.07e-03'
p1172
S'6.95e-01'
p1173
tp1174
a(S'Longevity_2014_Age85'
p1175
S'Zeller_10'
p1176
S'LY6H'
p1177
S'1.61e-01'
p1178
S'9.80e-01'
p1179
tp1180
a(S'Longevity_2014_Age85'
p1181
S'Zeller_10'
p1182
S'MAGED2'
p1183
S'8.10e-01'
p1184
S'1.00e+00'
p1185
tp1186
a(S'Longevity_2014_Age85'
p1187
S'Zeller_10'
p1188
S'MAPK8IP1'
p1189
S'7.92e-05'
p1190
S'3.36e-01'
p1191
tp1192
a(S'Longevity_2014_Age85'
p1193
S'Zeller_10'
p1194
S'MATN2'
p1195
S'3.12e-03'
p1196
S'8.09e-01'
p1197
tp1198
a(S'Longevity_2014_Age85'
p1199
S'Zeller_10'
p1200
S'MEX3D'
p1201
S'2.67e-01'
p1202
S'9.91e-01'
p1203
tp1204
a(S'Longevity_2014_Age85'
p1205
S'Zeller_10'
p1206
S'MFHAS1'
p1207
S'2.29e-03'
p1208
S'7.67e-01'
p1209
tp1210
a(S'Longevity_2014_Age85'
p1211
S'Zeller_10'
p1212
S'MPHOSPH6'
p1213
S'5.51e-01'
p1214
S'1.00e+00'
p1215
tp1216
a(S'Longevity_2014_Age85'
p1217
S'Zeller_10'
p1218
S'MSH3'
p1219
S'6.02e-01'
p1220
S'1.00e+00'
p1221
tp1222
a(S'Longevity_2014_Age85'
p1223
S'Zeller_10'
p1224
S'MYLK2'
p1225
S'8.95e-01'
p1226
S'1.00e+00'
p1227
tp1228
a(S'Longevity_2014_Age85'
p1229
S'Zeller_10'
p1230
S'MYO1G'
p1231
S'3.95e-02'
p1232
S'9.71e-01'
p1233
tp1234
a(S'Longevity_2014_Age85'
p1235
S'Zeller_10'
p1236
S'NAV1'
p1237
S'6.67e-01'
p1238
S'1.00e+00'
p1239
tp1240
a(S'Longevity_2014_Age85'
p1241
S'Zeller_10'
p1242
S'NFATC3'
p1243
S'1.70e-03'
p1244
S'7.59e-01'
p1245
tp1246
a(S'Longevity_2014_Age85'
p1247
S'Zeller_10'
p1248
S'NOTCH4'
p1249
S'9.95e-01'
p1250
S'1.00e+00'
p1251
tp1252
a(S'Longevity_2014_Age85'
p1253
S'Zeller_10'
p1254
S'NPL'
p1255
S'7.84e-01'
p1256
S'1.00e+00'
p1257
tp1258
ag44
a(S'Longevity_2014_Age85'
p1259
S'Zeller_10'
p1260
S'NUDT11'
p1261
S'4.57e-01'
p1262
S'9.98e-01'
p1263
tp1264
a(S'Longevity_2014_Age85'
p1265
S'Zeller_10'
p1266
S'OR1L4'
p1267
S'8.05e-04'
p1268
S'6.83e-01'
p1269
tp1270
ag44
ag44
a(S'Longevity_2014_Age85'
p1271
S'Zeller_10'
p1272
S'P2RX5'
p1273
S'5.91e-04'
p1274
S'6.83e-01'
p1275
tp1276
ag44
a(S'Longevity_2014_Age85'
p1277
S'Zeller_10'
p1278
S'PALMD'
p1279
S'7.47e-01'
p1280
S'1.00e+00'
p1281
tp1282
a(S'Longevity_2014_Age85'
p1283
S'Zeller_10'
p1284
S'PCCB'
p1285
S'1.14e-03'
p1286
S'6.95e-01'
p1287
tp1288
a(S'Longevity_2014_Age85'
p1289
S'Zeller_10'
p1290
S'PPP2R3C'
p1291
S'7.28e-04'
p1292
S'6.83e-01'
p1293
tp1294
a(S'Longevity_2014_Age85'
p1295
S'Zeller_10'
p1296
S'PREX1'
p1297
S'6.37e-01'
p1298
S'1.00e+00'
p1299
tp1300
a(S'Longevity_2014_Age85'
p1301
S'Zeller_10'
p1302
S'PRLR'
p1303
S'2.19e-01'
p1304
S'9.85e-01'
p1305
tp1306
a(S'Longevity_2014_Age85'
p1307
S'Zeller_10'
p1308
S'PRPS2'
p1309
S'7.09e-01'
p1310
S'1.00e+00'
p1311
tp1312
a(S'Longevity_2014_Age85'
p1313
S'Zeller_10'
p1314
S'PRRG1'
p1315
S'9.46e-03'
p1316
S'9.56e-01'
p1317
tp1318
a(S'Longevity_2014_Age85'
p1319
S'Zeller_10'
p1320
S'PRUNE'
p1321
S'1.65e-01'
p1322
S'9.80e-01'
p1323
tp1324
ag44
a(S'Longevity_2014_Age85'
p1325
S'Zeller_10'
p1326
S'RAB30'
p1327
S'2.62e-01'
p1328
S'9.91e-01'
p1329
tp1330
a(S'Longevity_2014_Age85'
p1331
S'Zeller_10'
p1332
S'RAB36'
p1333
S'5.52e-01'
p1334
S'1.00e+00'
p1335
tp1336
a(S'Longevity_2014_Age85'
p1337
S'Zeller_10'
p1338
S'RBM5'
p1339
S'3.03e-01'
p1340
S'9.92e-01'
p1341
tp1342
a(S'Longevity_2014_Age85'
p1343
S'Zeller_10'
p1344
S'RHEB'
p1345
S'3.16e-02'
p1346
S'9.71e-01'
p1347
tp1348
a(S'Longevity_2014_Age85'
p1349
S'Zeller_10'
p1350
S'RHOT2'
p1351
S'6.45e-01'
p1352
S'1.00e+00'
p1353
tp1354
a(S'Longevity_2014_Age85'
p1355
S'Zeller_10'
p1356
S'RMND5A'
p1357
S'2.41e-03'
p1358
S'7.68e-01'
p1359
tp1360
a(S'Longevity_2014_Age85'
p1361
S'Zeller_10'
p1362
S'RNF13'
p1363
S'7.67e-01'
p1364
S'1.00e+00'
p1365
tp1366
ag44
a(S'Longevity_2014_Age85'
p1367
S'Zeller_10'
p1368
S'SCAF1'
p1369
S'5.95e-01'
p1370
S'1.00e+00'
p1371
tp1372
a(S'Longevity_2014_Age85'
p1373
S'Zeller_10'
p1374
S'SCD'
p1375
S'5.41e-01'
p1376
S'1.00e+00'
p1377
tp1378
ag44
a(S'Longevity_2014_Age85'
p1379
S'Zeller_10'
p1380
S'SCNN1A'
p1381
S'2.74e-01'
p1382
S'9.92e-01'
p1383
tp1384
a(S'Longevity_2014_Age85'
p1385
S'Zeller_10'
p1386
S'SECTM1'
p1387
S'3.47e-02'
p1388
S'9.71e-01'
p1389
tp1390
a(S'Longevity_2014_Age85'
p1391
S'Zeller_10'
p1392
S'SERINC3'
p1393
S'1.15e-03'
p1394
S'6.95e-01'
p1395
tp1396
a(S'Longevity_2014_Age85'
p1397
S'Zeller_10'
p1398
S'SERTAD2'
p1399
S'1.02e-03'
p1400
S'6.95e-01'
p1401
tp1402
a(S'Longevity_2014_Age85'
p1403
S'Zeller_10'
p1404
S'SLC11A2'
p1405
S'1.87e-01'
p1406
S'9.80e-01'
p1407
tp1408
a(S'Longevity_2014_Age85'
p1409
S'Zeller_10'
p1410
S'SLC18A1'
p1411
S'5.97e-01'
p1412
S'1.00e+00'
p1413
tp1414
a(S'Longevity_2014_Age85'
p1415
S'Zeller_10'
p1416
S'SLC24A4'
p1417
S'9.51e-01'
p1418
S'1.00e+00'
p1419
tp1420
a(S'Longevity_2014_Age85'
p1421
S'Zeller_10'
p1422
S'SLC34A2'
p1423
S'6.36e-01'
p1424
S'1.00e+00'
p1425
tp1426
ag44
a(S'Longevity_2014_Age85'
p1427
S'Zeller_10'
p1428
S'SLC4A7'
p1429
S'5.88e-01'
p1430
S'1.00e+00'
p1431
tp1432
a(S'Longevity_2014_Age85'
p1433
S'Zeller_10'
p1434
S'SLC6A9'
p1435
S'2.70e-04'
p1436
S'5.74e-01'
p1437
tp1438
a(S'Longevity_2014_Age85'
p1439
S'Zeller_10'
p1440
S'SORBS3'
p1441
S'3.26e-01'
p1442
S'9.92e-01'
p1443
tp1444
a(S'Longevity_2014_Age85'
p1445
S'Zeller_10'
p1446
S'SPHAR'
p1447
S'9.83e-03'
p1448
S'9.56e-01'
p1449
tp1450
a(S'Longevity_2014_Age85'
p1451
S'Zeller_10'
p1452
S'SRPR'
p1453
S'9.32e-01'
p1454
S'1.00e+00'
p1455
tp1456
a(S'Longevity_2014_Age85'
p1457
S'Zeller_10'
p1458
S'STX18'
p1459
S'3.63e-01'
p1460
S'9.92e-01'
p1461
tp1462
a(S'Longevity_2014_Age85'
p1463
S'Zeller_10'
p1464
S'SURF2'
p1465
S'9.06e-01'
p1466
S'1.00e+00'
p1467
tp1468
a(S'Longevity_2014_Age85'
p1469
S'Zeller_10'
p1470
S'SYK'
p1471
S'7.46e-01'
p1472
S'1.00e+00'
p1473
tp1474
a(S'Longevity_2014_Age85'
p1475
S'Zeller_10'
p1476
S'SYT11'
p1477
S'1.79e-01'
p1478
S'9.80e-01'
p1479
tp1480
a(S'Longevity_2014_Age85'
p1481
S'Zeller_10'
p1482
S'TBC1D12'
p1483
S'3.15e-01'
p1484
S'9.92e-01'
p1485
tp1486
ag44
a(S'Longevity_2014_Age85'
p1487
S'Zeller_10'
p1488
S'TCERG1'
p1489
S'2.49e-01'
p1490
S'9.91e-01'
p1491
tp1492
a(S'Longevity_2014_Age85'
p1493
S'Zeller_10'
p1494
S'TERT'
p1495
S'7.67e-04'
p1496
S'6.83e-01'
p1497
tp1498
ag44
ag44
a(S'Longevity_2014_Age85'
p1499
S'Zeller_10'
p1500
S'TMEM132D'
p1501
S'2.92e-02'
p1502
S'9.64e-01'
p1503
tp1504
a(S'Longevity_2014_Age85'
p1505
S'Zeller_10'
p1506
S'TMEM186'
p1507
S'8.29e-03'
p1508
S'9.56e-01'
p1509
tp1510
a(S'Longevity_2014_Age85'
p1511
S'Zeller_10'
p1512
S'TMEM60'
p1513
S'5.23e-01'
p1514
S'1.00e+00'
p1515
tp1516
a(S'Longevity_2014_Age85'
p1517
S'Zeller_10'
p1518
S'TMEM62'
p1519
S'4.64e-01'
p1520
S'1.00e+00'
p1521
tp1522
a(S'Longevity_2014_Age85'
p1523
S'Zeller_10'
p1524
S'TMF1'
p1525
S'6.43e-02'
p1526
S'9.71e-01'
p1527
tp1528
a(S'Longevity_2014_Age85'
p1529
S'Zeller_10'
p1530
S'TNPO3'
p1531
S'5.47e-02'
p1532
S'9.71e-01'
p1533
tp1534
a(S'Longevity_2014_Age85'
p1535
S'Zeller_10'
p1536
S'TPST1'
p1537
S'1.04e-03'
p1538
S'6.95e-01'
p1539
tp1540
a(S'Longevity_2014_Age85'
p1541
S'Zeller_10'
p1542
S'TRIM38'
p1543
S'8.87e-04'
p1544
S'6.95e-01'
p1545
tp1546
a(S'Longevity_2014_Age85'
p1547
S'Zeller_10'
p1548
S'USP4'
p1549
S'6.83e-04'
p1550
S'6.83e-01'
p1551
tp1552
ag44
a(S'Longevity_2014_Age85'
p1553
S'Zeller_10'
p1554
S'YY1AP1'
p1555
S'1.87e-01'
p1556
S'9.80e-01'
p1557
tp1558
a(S'Longevity_2014_Age85'
p1559
S'Zeller_10'
p1560
S'ZBBX'
p1561
S'2.66e-02'
p1562
S'9.64e-01'
p1563
tp1564
a(S'Longevity_2014_Age85'
p1565
S'Zeller_10'
p1566
S'ZBTB20'
p1567
S'6.12e-01'
p1568
S'1.00e+00'
p1569
tp1570
ag44
a(S'Longevity_2014_Age85'
p1571
S'Zeller_10'
p1572
S'ZNF570'
p1573
S'2.14e-01'
p1574
S'9.85e-01'
p1575
tp1576
a(S'Longevity_2014_Age85'
p1577
S'Zeller_10'
p1578
S'ZNF574'
p1579
S'1.40e-01'
p1580
S'9.80e-01'
p1581
tp1582
ag44
ag44
a(S'Longevity_2014_Age85'
p1583
S'Zeller_10'
p1584
S'ZRANB3'
p1585
S'2.90e-01'
p1586
S'9.92e-01'
p1587
tp1588
a(S'Longevity_2014_Age85'
p1589
S'Zeller_10'
p1590
S'ZSCAN1'
p1591
S'6.21e-03'
p1592
S'9.35e-01'
p1593
tp1594
asS'Longevity_2014_Age85---Dixon_07'
p1595
(lp1596
(S'Longevity_2014_Age85'
p1597
S'Dixon_07'
p1598
S'ABCA4'
p1599
S'1.19e-03'
p1600
S'5.81e-01'
p1601
tp1602
a(S'Longevity_2014_Age85'
p1603
S'Dixon_07'
p1604
S'ABCA7'
p1605
S'1.49e-03'
p1606
S'5.81e-01'
p1607
tp1608
a(S'Longevity_2014_Age85'
p1609
S'Dixon_07'
p1610
S'ACAD8'
p1611
S'2.60e-01'
p1612
S'1.00e+00'
p1613
tp1614
a(S'Longevity_2014_Age85'
p1615
S'Dixon_07'
p1616
S'ACADL'
p1617
S'1.48e-03'
p1618
S'5.81e-01'
p1619
tp1620
a(S'Longevity_2014_Age85'
p1621
S'Dixon_07'
p1622
S'ADAM15'
p1623
S'1.15e-01'
p1624
S'1.00e+00'
p1625
tp1626
a(S'Longevity_2014_Age85'
p1627
S'Dixon_07'
p1628
S'AFF2'
p1629
S'2.43e-01'
p1630
S'1.00e+00'
p1631
tp1632
ag44
a(S'Longevity_2014_Age85'
p1633
S'Dixon_07'
p1634
S'AIP'
p1635
S'9.58e-04'
p1636
S'5.81e-01'
p1637
tp1638
a(S'Longevity_2014_Age85'
p1639
S'Dixon_07'
p1640
S'AMZ1'
p1641
S'6.67e-01'
p1642
S'1.00e+00'
p1643
tp1644
a(S'Longevity_2014_Age85'
p1645
S'Dixon_07'
p1646
S'AP4S1'
p1647
S'1.55e-01'
p1648
S'1.00e+00'
p1649
tp1650
a(S'Longevity_2014_Age85'
p1651
S'Dixon_07'
p1652
S'APBB1IP'
p1653
S'4.62e-01'
p1654
S'1.00e+00'
p1655
tp1656
a(S'Longevity_2014_Age85'
p1657
S'Dixon_07'
p1658
S'APOBEC1'
p1659
S'1.10e-02'
p1660
S'8.94e-01'
p1661
tp1662
a(S'Longevity_2014_Age85'
p1663
S'Dixon_07'
p1664
S'ARHGAP27'
p1665
S'2.33e-04'
p1666
S'5.58e-01'
p1667
tp1668
a(S'Longevity_2014_Age85'
p1669
S'Dixon_07'
p1670
S'ARID2'
p1671
S'4.34e-01'
p1672
S'1.00e+00'
p1673
tp1674
a(S'Longevity_2014_Age85'
p1675
S'Dixon_07'
p1676
S'ASPSCR1'
p1677
S'5.97e-01'
p1678
S'1.00e+00'
p1679
tp1680
ag44
a(S'Longevity_2014_Age85'
p1681
S'Dixon_07'
p1682
S'ATP10A'
p1683
S'9.12e-01'
p1684
S'1.00e+00'
p1685
tp1686
ag44
a(S'Longevity_2014_Age85'
p1687
S'Dixon_07'
p1688
S'AXL'
p1689
S'3.17e-02'
p1690
S'1.00e+00'
p1691
tp1692
a(S'Longevity_2014_Age85'
p1693
S'Dixon_07'
p1694
S'BAG4'
p1695
S'8.14e-01'
p1696
S'1.00e+00'
p1697
tp1698
a(S'Longevity_2014_Age85'
p1699
S'Dixon_07'
p1700
S'C21orf29'
p1701
S'1.50e-03'
p1702
S'5.81e-01'
p1703
tp1704
a(S'Longevity_2014_Age85'
p1705
S'Dixon_07'
p1706
S'CASP10'
p1707
S'7.50e-01'
p1708
S'1.00e+00'
p1709
tp1710
a(S'Longevity_2014_Age85'
p1711
S'Dixon_07'
p1712
S'CD1C'
p1713
S'2.73e-03'
p1714
S'5.92e-01'
p1715
tp1716
a(S'Longevity_2014_Age85'
p1717
S'Dixon_07'
p1718
S'CD81'
p1719
S'9.56e-02'
p1720
S'1.00e+00'
p1721
tp1722
a(S'Longevity_2014_Age85'
p1723
S'Dixon_07'
p1724
S'CD99L2'
p1725
S'2.80e-02'
p1726
S'1.00e+00'
p1727
tp1728
a(S'Longevity_2014_Age85'
p1729
S'Dixon_07'
p1730
S'CDK6'
p1731
S'9.06e-04'
p1732
S'5.81e-01'
p1733
tp1734
a(S'Longevity_2014_Age85'
p1735
S'Dixon_07'
p1736
S'CLDN20'
p1737
S'3.51e-04'
p1738
S'5.81e-01'
p1739
tp1740
a(S'Longevity_2014_Age85'
p1741
S'Dixon_07'
p1742
S'CLDN23'
p1743
S'7.06e-02'
p1744
S'1.00e+00'
p1745
tp1746
a(S'Longevity_2014_Age85'
p1747
S'Dixon_07'
p1748
S'COL4A3BP'
p1749
S'9.19e-01'
p1750
S'1.00e+00'
p1751
tp1752
a(S'Longevity_2014_Age85'
p1753
S'Dixon_07'
p1754
S'CRIM1'
p1755
S'1.59e-03'
p1756
S'5.81e-01'
p1757
tp1758
a(S'Longevity_2014_Age85'
p1759
S'Dixon_07'
p1760
S'CTDSPL'
p1761
S'3.90e-04'
p1762
S'5.81e-01'
p1763
tp1764
ag44
a(S'Longevity_2014_Age85'
p1765
S'Dixon_07'
p1766
S'DAPK2'
p1767
S'5.12e-02'
p1768
S'1.00e+00'
p1769
tp1770
a(S'Longevity_2014_Age85'
p1771
S'Dixon_07'
p1772
S'DEFB127'
p1773
S'1.15e-02'
p1774
S'9.21e-01'
p1775
tp1776
a(S'Longevity_2014_Age85'
p1777
S'Dixon_07'
p1778
S'DENND1A'
p1779
S'2.22e-03'
p1780
S'5.85e-01'
p1781
tp1782
a(S'Longevity_2014_Age85'
p1783
S'Dixon_07'
p1784
S'DHDH'
p1785
S'2.65e-01'
p1786
S'1.00e+00'
p1787
tp1788
ag44
a(S'Longevity_2014_Age85'
p1789
S'Dixon_07'
p1790
S'DNAJC13'
p1791
S'5.26e-01'
p1792
S'1.00e+00'
p1793
tp1794
a(S'Longevity_2014_Age85'
p1795
S'Dixon_07'
p1796
S'DUSP8'
p1797
S'9.94e-01'
p1798
S'1.00e+00'
p1799
tp1800
a(S'Longevity_2014_Age85'
p1801
S'Dixon_07'
p1802
S'F7'
p1803
S'6.02e-02'
p1804
S'1.00e+00'
p1805
tp1806
ag44
ag44
a(S'Longevity_2014_Age85'
p1807
S'Dixon_07'
p1808
S'FBXL7'
p1809
S'6.95e-01'
p1810
S'1.00e+00'
p1811
tp1812
a(S'Longevity_2014_Age85'
p1813
S'Dixon_07'
p1814
S'FCGR3B'
p1815
S'2.22e-04'
p1816
S'5.58e-01'
p1817
tp1818
a(S'Longevity_2014_Age85'
p1819
S'Dixon_07'
p1820
S'FER'
p1821
S'7.63e-01'
p1822
S'1.00e+00'
p1823
tp1824
a(S'Longevity_2014_Age85'
p1825
S'Dixon_07'
p1826
S'FHL3'
p1827
S'1.03e-03'
p1828
S'5.81e-01'
p1829
tp1830
a(S'Longevity_2014_Age85'
p1831
S'Dixon_07'
p1832
S'FZD1'
p1833
S'7.58e-01'
p1834
S'1.00e+00'
p1835
tp1836
a(S'Longevity_2014_Age85'
p1837
S'Dixon_07'
p1838
S'GALNT11'
p1839
S'3.36e-03'
p1840
S'6.04e-01'
p1841
tp1842
a(S'Longevity_2014_Age85'
p1843
S'Dixon_07'
p1844
S'GFI1'
p1845
S'7.64e-02'
p1846
S'1.00e+00'
p1847
tp1848
ag44
a(S'Longevity_2014_Age85'
p1849
S'Dixon_07'
p1850
S'GOLGA7'
p1851
S'8.83e-01'
p1852
S'1.00e+00'
p1853
tp1854
a(S'Longevity_2014_Age85'
p1855
S'Dixon_07'
p1856
S'GP2'
p1857
S'5.14e-01'
p1858
S'1.00e+00'
p1859
tp1860
a(S'Longevity_2014_Age85'
p1861
S'Dixon_07'
p1862
S'GPR146'
p1863
S'9.36e-01'
p1864
S'1.00e+00'
p1865
tp1866
a(S'Longevity_2014_Age85'
p1867
S'Dixon_07'
p1868
S'GPR68'
p1869
S'6.61e-01'
p1870
S'1.00e+00'
p1871
tp1872
a(S'Longevity_2014_Age85'
p1873
S'Dixon_07'
p1874
S'H6PD'
p1875
S'1.25e-03'
p1876
S'5.81e-01'
p1877
tp1878
a(S'Longevity_2014_Age85'
p1879
S'Dixon_07'
p1880
S'HAO1'
p1881
S'2.63e-01'
p1882
S'1.00e+00'
p1883
tp1884
a(S'Longevity_2014_Age85'
p1885
S'Dixon_07'
p1886
S'HIST1H2AC'
p1887
S'4.17e-01'
p1888
S'1.00e+00'
p1889
tp1890
a(S'Longevity_2014_Age85'
p1891
S'Dixon_07'
p1892
S'HMGA1'
p1893
S'9.59e-01'
p1894
S'1.00e+00'
p1895
tp1896
a(S'Longevity_2014_Age85'
p1897
S'Dixon_07'
p1898
S'HYDIN'
p1899
S'7.80e-04'
p1900
S'5.81e-01'
p1901
tp1902
a(S'Longevity_2014_Age85'
p1903
S'Dixon_07'
p1904
S'IFNA2'
p1905
S'8.00e-01'
p1906
S'1.00e+00'
p1907
tp1908
a(S'Longevity_2014_Age85'
p1909
S'Dixon_07'
p1910
S'IGFBP4'
p1911
S'8.13e-01'
p1912
S'1.00e+00'
p1913
tp1914
ag44
a(S'Longevity_2014_Age85'
p1915
S'Dixon_07'
p1916
S'ISYNA1'
p1917
S'2.78e-01'
p1918
S'1.00e+00'
p1919
tp1920
a(S'Longevity_2014_Age85'
p1921
S'Dixon_07'
p1922
S'ITPK1'
p1923
S'1.44e-01'
p1924
S'1.00e+00'
p1925
tp1926
a(S'Longevity_2014_Age85'
p1927
S'Dixon_07'
p1928
S'KCTD12'
p1929
S'6.97e-01'
p1930
S'1.00e+00'
p1931
tp1932
a(S'Longevity_2014_Age85'
p1933
S'Dixon_07'
p1934
S'KIAA0195'
p1935
S'2.54e-04'
p1936
S'5.58e-01'
p1937
tp1938
ag44
ag44
a(S'Longevity_2014_Age85'
p1939
S'Dixon_07'
p1940
S'LRRC8E'
p1941
S'1.75e-01'
p1942
S'1.00e+00'
p1943
tp1944
a(S'Longevity_2014_Age85'
p1945
S'Dixon_07'
p1946
S'LTBP4'
p1947
S'9.03e-01'
p1948
S'1.00e+00'
p1949
tp1950
a(S'Longevity_2014_Age85'
p1951
S'Dixon_07'
p1952
S'LY6H'
p1953
S'1.05e-01'
p1954
S'1.00e+00'
p1955
tp1956
a(S'Longevity_2014_Age85'
p1957
S'Dixon_07'
p1958
S'MAGED2'
p1959
S'6.44e-01'
p1960
S'1.00e+00'
p1961
tp1962
a(S'Longevity_2014_Age85'
p1963
S'Dixon_07'
p1964
S'MAPK8IP1'
p1965
S'7.60e-07'
p1966
S'1.00e-02'
p1967
tp1968
a(S'Longevity_2014_Age85'
p1969
S'Dixon_07'
p1970
S'MATN2'
p1971
S'8.24e-01'
p1972
S'1.00e+00'
p1973
tp1974
ag44
a(S'Longevity_2014_Age85'
p1975
S'Dixon_07'
p1976
S'MFHAS1'
p1977
S'7.03e-01'
p1978
S'1.00e+00'
p1979
tp1980
a(S'Longevity_2014_Age85'
p1981
S'Dixon_07'
p1982
S'MPHOSPH6'
p1983
S'1.31e-03'
p1984
S'5.81e-01'
p1985
tp1986
a(S'Longevity_2014_Age85'
p1987
S'Dixon_07'
p1988
S'MSH3'
p1989
S'5.34e-01'
p1990
S'1.00e+00'
p1991
tp1992
a(S'Longevity_2014_Age85'
p1993
S'Dixon_07'
p1994
S'MYLK2'
p1995
S'7.42e-01'
p1996
S'1.00e+00'
p1997
tp1998
a(S'Longevity_2014_Age85'
p1999
S'Dixon_07'
p2000
S'MYO1G'
p2001
S'1.00e-01'
p2002
S'1.00e+00'
p2003
tp2004
a(S'Longevity_2014_Age85'
p2005
S'Dixon_07'
p2006
S'NAV1'
p2007
S'1.51e-03'
p2008
S'5.81e-01'
p2009
tp2010
a(S'Longevity_2014_Age85'
p2011
S'Dixon_07'
p2012
S'NFATC3'
p2013
S'2.05e-01'
p2014
S'1.00e+00'
p2015
tp2016
a(S'Longevity_2014_Age85'
p2017
S'Dixon_07'
p2018
S'NOTCH4'
p2019
S'2.96e-03'
p2020
S'5.92e-01'
p2021
tp2022
a(S'Longevity_2014_Age85'
p2023
S'Dixon_07'
p2024
S'NPL'
p2025
S'4.37e-01'
p2026
S'1.00e+00'
p2027
tp2028
a(S'Longevity_2014_Age85'
p2029
S'Dixon_07'
p2030
S'NR2F1'
p2031
S'7.89e-01'
p2032
S'1.00e+00'
p2033
tp2034
a(S'Longevity_2014_Age85'
p2035
S'Dixon_07'
p2036
S'NUDT11'
p2037
S'1.43e-01'
p2038
S'1.00e+00'
p2039
tp2040
ag44
a(S'Longevity_2014_Age85'
p2041
S'Dixon_07'
p2042
S'OR4F21'
p2043
S'6.04e-04'
p2044
S'5.81e-01'
p2045
tp2046
a(S'Longevity_2014_Age85'
p2047
S'Dixon_07'
p2048
S'OR8B2'
p2049
S'9.37e-01'
p2050
S'1.00e+00'
p2051
tp2052
a(S'Longevity_2014_Age85'
p2053
S'Dixon_07'
p2054
S'P2RX5'
p2055
S'9.53e-01'
p2056
S'1.00e+00'
p2057
tp2058
a(S'Longevity_2014_Age85'
p2059
S'Dixon_07'
p2060
S'PAGE2B'
p2061
S'1.60e-01'
p2062
S'1.00e+00'
p2063
tp2064
a(S'Longevity_2014_Age85'
p2065
S'Dixon_07'
p2066
S'PALMD'
p2067
S'4.22e-02'
p2068
S'1.00e+00'
p2069
tp2070
a(S'Longevity_2014_Age85'
p2071
S'Dixon_07'
p2072
S'PCCB'
p2073
S'1.84e-03'
p2074
S'5.81e-01'
p2075
tp2076
ag44
a(S'Longevity_2014_Age85'
p2077
S'Dixon_07'
p2078
S'PREX1'
p2079
S'3.37e-02'
p2080
S'1.00e+00'
p2081
tp2082
a(S'Longevity_2014_Age85'
p2083
S'Dixon_07'
p2084
S'PRLR'
p2085
S'2.13e-01'
p2086
S'1.00e+00'
p2087
tp2088
a(S'Longevity_2014_Age85'
p2089
S'Dixon_07'
p2090
S'PRPS2'
p2091
S'9.88e-01'
p2092
S'1.00e+00'
p2093
tp2094
a(S'Longevity_2014_Age85'
p2095
S'Dixon_07'
p2096
S'PRRG1'
p2097
S'9.41e-01'
p2098
S'1.00e+00'
p2099
tp2100
a(S'Longevity_2014_Age85'
p2101
S'Dixon_07'
p2102
S'PRUNE'
p2103
S'1.31e-03'
p2104
S'5.81e-01'
p2105
tp2106
a(S'Longevity_2014_Age85'
p2107
S'Dixon_07'
p2108
S'PTPRB'
p2109
S'1.23e-03'
p2110
S'5.81e-01'
p2111
tp2112
a(S'Longevity_2014_Age85'
p2113
S'Dixon_07'
p2114
S'RAB30'
p2115
S'3.30e-01'
p2116
S'1.00e+00'
p2117
tp2118
a(S'Longevity_2014_Age85'
p2119
S'Dixon_07'
p2120
S'RAB36'
p2121
S'1.96e-01'
p2122
S'1.00e+00'
p2123
tp2124
a(S'Longevity_2014_Age85'
p2125
S'Dixon_07'
p2126
S'RBM5'
p2127
S'7.24e-01'
p2128
S'1.00e+00'
p2129
tp2130
a(S'Longevity_2014_Age85'
p2131
S'Dixon_07'
p2132
S'RHEB'
p2133
S'8.16e-02'
p2134
S'1.00e+00'
p2135
tp2136
a(S'Longevity_2014_Age85'
p2137
S'Dixon_07'
p2138
S'RHOT2'
p2139
S'4.18e-02'
p2140
S'1.00e+00'
p2141
tp2142
ag44
a(S'Longevity_2014_Age85'
p2143
S'Dixon_07'
p2144
S'RNF13'
p2145
S'5.53e-01'
p2146
S'1.00e+00'
p2147
tp2148
a(S'Longevity_2014_Age85'
p2149
S'Dixon_07'
p2150
S'ROPN1'
p2151
S'7.87e-02'
p2152
S'1.00e+00'
p2153
tp2154
ag44
a(S'Longevity_2014_Age85'
p2155
S'Dixon_07'
p2156
S'SCD'
p2157
S'7.62e-01'
p2158
S'1.00e+00'
p2159
tp2160
a(S'Longevity_2014_Age85'
p2161
S'Dixon_07'
p2162
S'SCN3B'
p2163
S'2.55e-03'
p2164
S'5.92e-01'
p2165
tp2166
a(S'Longevity_2014_Age85'
p2167
S'Dixon_07'
p2168
S'SCNN1A'
p2169
S'2.99e-01'
p2170
S'1.00e+00'
p2171
tp2172
a(S'Longevity_2014_Age85'
p2173
S'Dixon_07'
p2174
S'SECTM1'
p2175
S'1.60e-01'
p2176
S'1.00e+00'
p2177
tp2178
ag44
a(S'Longevity_2014_Age85'
p2179
S'Dixon_07'
p2180
S'SERTAD2'
p2181
S'2.60e-01'
p2182
S'1.00e+00'
p2183
tp2184
a(S'Longevity_2014_Age85'
p2185
S'Dixon_07'
p2186
S'SLC11A2'
p2187
S'4.46e-02'
p2188
S'1.00e+00'
p2189
tp2190
a(S'Longevity_2014_Age85'
p2191
S'Dixon_07'
p2192
S'SLC18A1'
p2193
S'4.58e-01'
p2194
S'1.00e+00'
p2195
tp2196
a(S'Longevity_2014_Age85'
p2197
S'Dixon_07'
p2198
S'SLC24A4'
p2199
S'7.16e-01'
p2200
S'1.00e+00'
p2201
tp2202
a(S'Longevity_2014_Age85'
p2203
S'Dixon_07'
p2204
S'SLC34A2'
p2205
S'1.21e-03'
p2206
S'5.81e-01'
p2207
tp2208
a(S'Longevity_2014_Age85'
p2209
S'Dixon_07'
p2210
S'SLC35F4'
p2211
S'1.17e-03'
p2212
S'5.81e-01'
p2213
tp2214
a(S'Longevity_2014_Age85'
p2215
S'Dixon_07'
p2216
S'SLC4A7'
p2217
S'2.90e-01'
p2218
S'1.00e+00'
p2219
tp2220
a(S'Longevity_2014_Age85'
p2221
S'Dixon_07'
p2222
S'SLC6A9'
p2223
S'6.91e-01'
p2224
S'1.00e+00'
p2225
tp2226
a(S'Longevity_2014_Age85'
p2227
S'Dixon_07'
p2228
S'SORBS3'
p2229
S'6.68e-01'
p2230
S'1.00e+00'
p2231
tp2232
a(S'Longevity_2014_Age85'
p2233
S'Dixon_07'
p2234
S'SPHAR'
p2235
S'3.57e-01'
p2236
S'1.00e+00'
p2237
tp2238
a(S'Longevity_2014_Age85'
p2239
S'Dixon_07'
p2240
S'SRPR'
p2241
S'2.53e-01'
p2242
S'1.00e+00'
p2243
tp2244
a(S'Longevity_2014_Age85'
p2245
S'Dixon_07'
p2246
S'STX18'
p2247
S'1.33e-03'
p2248
S'5.81e-01'
p2249
tp2250
a(S'Longevity_2014_Age85'
p2251
S'Dixon_07'
p2252
S'SURF2'
p2253
S'8.81e-01'
p2254
S'1.00e+00'
p2255
tp2256
a(S'Longevity_2014_Age85'
p2257
S'Dixon_07'
p2258
S'SYK'
p2259
S'1.36e-03'
p2260
S'5.81e-01'
p2261
tp2262
a(S'Longevity_2014_Age85'
p2263
S'Dixon_07'
p2264
S'SYT11'
p2265
S'3.32e-01'
p2266
S'1.00e+00'
p2267
tp2268
a(S'Longevity_2014_Age85'
p2269
S'Dixon_07'
p2270
S'TBC1D12'
p2271
S'4.25e-04'
p2272
S'5.81e-01'
p2273
tp2274
a(S'Longevity_2014_Age85'
p2275
S'Dixon_07'
p2276
S'TBX1'
p2277
S'1.40e-03'
p2278
S'5.81e-01'
p2279
tp2280
a(S'Longevity_2014_Age85'
p2281
S'Dixon_07'
p2282
S'TCERG1'
p2283
S'8.43e-01'
p2284
S'1.00e+00'
p2285
tp2286
a(S'Longevity_2014_Age85'
p2287
S'Dixon_07'
p2288
S'TERT'
p2289
S'6.29e-01'
p2290
S'1.00e+00'
p2291
tp2292
a(S'Longevity_2014_Age85'
p2293
S'Dixon_07'
p2294
S'TEX15'
p2295
S'1.16e-01'
p2296
S'1.00e+00'
p2297
tp2298
a(S'Longevity_2014_Age85'
p2299
S'Dixon_07'
p2300
S'TFPI2'
p2301
S'1.54e-01'
p2302
S'1.00e+00'
p2303
tp2304
ag44
ag44
a(S'Longevity_2014_Age85'
p2305
S'Dixon_07'
p2306
S'TMEM60'
p2307
S'2.63e-01'
p2308
S'1.00e+00'
p2309
tp2310
a(S'Longevity_2014_Age85'
p2311
S'Dixon_07'
p2312
S'TMEM62'
p2313
S'6.83e-02'
p2314
S'1.00e+00'
p2315
tp2316
a(S'Longevity_2014_Age85'
p2317
S'Dixon_07'
p2318
S'TMF1'
p2319
S'8.35e-01'
p2320
S'1.00e+00'
p2321
tp2322
a(S'Longevity_2014_Age85'
p2323
S'Dixon_07'
p2324
S'TNPO3'
p2325
S'5.37e-01'
p2326
S'1.00e+00'
p2327
tp2328
a(S'Longevity_2014_Age85'
p2329
S'Dixon_07'
p2330
S'TPST1'
p2331
S'9.69e-01'
p2332
S'1.00e+00'
p2333
tp2334
a(S'Longevity_2014_Age85'
p2335
S'Dixon_07'
p2336
S'TRIM38'
p2337
S'6.72e-01'
p2338
S'1.00e+00'
p2339
tp2340
a(S'Longevity_2014_Age85'
p2341
S'Dixon_07'
p2342
S'USP4'
p2343
S'5.53e-01'
p2344
S'1.00e+00'
p2345
tp2346
a(S'Longevity_2014_Age85'
p2347
S'Dixon_07'
p2348
S'USP53'
p2349
S'4.12e-05'
p2350
S'2.71e-01'
p2351
tp2352
a(S'Longevity_2014_Age85'
p2353
S'Dixon_07'
p2354
S'YY1AP1'
p2355
S'2.19e-01'
p2356
S'1.00e+00'
p2357
tp2358
ag44
a(S'Longevity_2014_Age85'
p2359
S'Dixon_07'
p2360
S'ZBTB20'
p2361
S'6.89e-04'
p2362
S'5.81e-01'
p2363
tp2364
a(S'Longevity_2014_Age85'
p2365
S'Dixon_07'
p2366
S'ZNF208'
p2367
S'1.66e-01'
p2368
S'1.00e+00'
p2369
tp2370
a(S'Longevity_2014_Age85'
p2371
S'Dixon_07'
p2372
S'ZNF570'
p2373
S'4.01e-02'
p2374
S'1.00e+00'
p2375
tp2376
a(S'Longevity_2014_Age85'
p2377
S'Dixon_07'
p2378
S'ZNF574'
p2379
S'2.59e-03'
p2380
S'5.92e-01'
p2381
tp2382
a(S'Longevity_2014_Age85'
p2383
S'Dixon_07'
p2384
S'ZNF678'
p2385
S'9.27e-01'
p2386
S'1.00e+00'
p2387
tp2388
a(S'Longevity_2014_Age85'
p2389
S'Dixon_07'
p2390
S'ZNF84'
p2391
S'8.58e-04'
p2392
S'5.81e-01'
p2393
tp2394
a(S'Longevity_2014_Age85'
p2395
S'Dixon_07'
p2396
S'ZRANB3'
p2397
S'1.00e-04'
p2398
S'4.39e-01'
p2399
tp2400
a(S'Longevity_2014_Age85'
p2401
S'Dixon_07'
p2402
S'ZSCAN1'
p2403
S'1.44e-03'
p2404
S'5.81e-01'
p2405
tp2406
asS'Perls_12_snp135_maf---Zeller_10'
p2407
(lp2408
(S'Perls_12_snp135_maf'
p2409
S'Zeller_10'
p2410
S'ABCA4'
p2411
S'6.40e-02'
p2412
S'1.00e+00'
p2413
tp2414
a(S'Perls_12_snp135_maf'
p2415
S'Zeller_10'
p2416
S'ABCA7'
p2417
S'6.01e-01'
p2418
S'1.00e+00'
p2419
tp2420
a(S'Perls_12_snp135_maf'
p2421
S'Zeller_10'
p2422
S'ACAD8'
p2423
S'1.97e-03'
p2424
S'9.36e-01'
p2425
tp2426
ag44
a(S'Perls_12_snp135_maf'
p2427
S'Zeller_10'
p2428
S'ADAM15'
p2429
S'2.06e-05'
p2430
S'1.24e-01'
p2431
tp2432
a(S'Perls_12_snp135_maf'
p2433
S'Zeller_10'
p2434
S'AFF2'
p2435
S'1.41e-03'
p2436
S'8.91e-01'
p2437
tp2438
a(S'Perls_12_snp135_maf'
p2439
S'Zeller_10'
p2440
S'AIFM2'
p2441
S'4.80e-01'
p2442
S'1.00e+00'
p2443
tp2444
a(S'Perls_12_snp135_maf'
p2445
S'Zeller_10'
p2446
S'AIP'
p2447
S'5.00e-01'
p2448
S'1.00e+00'
p2449
tp2450
a(S'Perls_12_snp135_maf'
p2451
S'Zeller_10'
p2452
S'AMZ1'
p2453
S'4.63e-01'
p2454
S'1.00e+00'
p2455
tp2456
a(S'Perls_12_snp135_maf'
p2457
S'Zeller_10'
p2458
S'AP4S1'
p2459
S'9.73e-01'
p2460
S'1.00e+00'
p2461
tp2462
a(S'Perls_12_snp135_maf'
p2463
S'Zeller_10'
p2464
S'APBB1IP'
p2465
S'8.04e-01'
p2466
S'1.00e+00'
p2467
tp2468
ag44
ag44
a(S'Perls_12_snp135_maf'
p2469
S'Zeller_10'
p2470
S'ARID2'
p2471
S'5.75e-01'
p2472
S'1.00e+00'
p2473
tp2474
a(S'Perls_12_snp135_maf'
p2475
S'Zeller_10'
p2476
S'ASPSCR1'
p2477
S'2.20e-03'
p2478
S'9.52e-01'
p2479
tp2480
a(S'Perls_12_snp135_maf'
p2481
S'Zeller_10'
p2482
S'ATG2B'
p2483
S'7.85e-01'
p2484
S'1.00e+00'
p2485
tp2486
a(S'Perls_12_snp135_maf'
p2487
S'Zeller_10'
p2488
S'ATP10A'
p2489
S'1.61e-01'
p2490
S'1.00e+00'
p2491
tp2492
a(S'Perls_12_snp135_maf'
p2493
S'Zeller_10'
p2494
S'ATRIP'
p2495
S'4.10e-01'
p2496
S'1.00e+00'
p2497
tp2498
a(S'Perls_12_snp135_maf'
p2499
S'Zeller_10'
p2500
S'AXL'
p2501
S'2.56e-01'
p2502
S'1.00e+00'
p2503
tp2504
a(S'Perls_12_snp135_maf'
p2505
S'Zeller_10'
p2506
S'BAG4'
p2507
S'1.77e-01'
p2508
S'1.00e+00'
p2509
tp2510
ag44
a(S'Perls_12_snp135_maf'
p2511
S'Zeller_10'
p2512
S'CASP10'
p2513
S'8.94e-01'
p2514
S'1.00e+00'
p2515
tp2516
a(S'Perls_12_snp135_maf'
p2517
S'Zeller_10'
p2518
S'CD1C'
p2519
S'1.00e+00'
p2520
S'1.00e+00'
p2521
tp2522
a(S'Perls_12_snp135_maf'
p2523
S'Zeller_10'
p2524
S'CD81'
p2525
S'5.43e-01'
p2526
S'1.00e+00'
p2527
tp2528
ag44
a(S'Perls_12_snp135_maf'
p2529
S'Zeller_10'
p2530
S'CDK6'
p2531
S'5.05e-02'
p2532
S'1.00e+00'
p2533
tp2534
a(S'Perls_12_snp135_maf'
p2535
S'Zeller_10'
p2536
S'CLDN20'
p2537
S'4.74e-01'
p2538
S'1.00e+00'
p2539
tp2540
a(S'Perls_12_snp135_maf'
p2541
S'Zeller_10'
p2542
S'CLDN23'
p2543
S'1.47e-03'
p2544
S'8.91e-01'
p2545
tp2546
a(S'Perls_12_snp135_maf'
p2547
S'Zeller_10'
p2548
S'COL4A3BP'
p2549
S'9.74e-01'
p2550
S'1.00e+00'
p2551
tp2552
a(S'Perls_12_snp135_maf'
p2553
S'Zeller_10'
p2554
S'CRIM1'
p2555
S'1.89e-01'
p2556
S'1.00e+00'
p2557
tp2558
a(S'Perls_12_snp135_maf'
p2559
S'Zeller_10'
p2560
S'CTDSPL'
p2561
S'7.82e-01'
p2562
S'1.00e+00'
p2563
tp2564
a(S'Perls_12_snp135_maf'
p2565
S'Zeller_10'
p2566
S'CWC15'
p2567
S'2.36e-03'
p2568
S'9.52e-01'
p2569
tp2570
a(S'Perls_12_snp135_maf'
p2571
S'Zeller_10'
p2572
S'DAPK2'
p2573
S'9.32e-04'
p2574
S'8.59e-01'
p2575
tp2576
ag44
a(S'Perls_12_snp135_maf'
p2577
S'Zeller_10'
p2578
S'DENND1A'
p2579
S'8.06e-01'
p2580
S'1.00e+00'
p2581
tp2582
a(S'Perls_12_snp135_maf'
p2583
S'Zeller_10'
p2584
S'DHDH'
p2585
S'6.96e-01'
p2586
S'1.00e+00'
p2587
tp2588
a(S'Perls_12_snp135_maf'
p2589
S'Zeller_10'
p2590
S'DKFZP761P0423'
p2591
S'5.82e-05'
p2592
S'2.35e-01'
p2593
tp2594
a(S'Perls_12_snp135_maf'
p2595
S'Zeller_10'
p2596
S'DNAJC13'
p2597
S'8.18e-01'
p2598
S'1.00e+00'
p2599
tp2600
a(S'Perls_12_snp135_maf'
p2601
S'Zeller_10'
p2602
S'DUSP8'
p2603
S'6.16e-02'
p2604
S'1.00e+00'
p2605
tp2606
ag44
a(S'Perls_12_snp135_maf'
p2607
S'Zeller_10'
p2608
S'FADS6'
p2609
S'7.76e-01'
p2610
S'1.00e+00'
p2611
tp2612
a(S'Perls_12_snp135_maf'
p2613
S'Zeller_10'
p2614
S'FALZ'
p2615
S'3.79e-01'
p2616
S'1.00e+00'
p2617
tp2618
a(S'Perls_12_snp135_maf'
p2619
S'Zeller_10'
p2620
S'FBXL7'
p2621
S'9.72e-04'
p2622
S'8.59e-01'
p2623
tp2624
a(S'Perls_12_snp135_maf'
p2625
S'Zeller_10'
p2626
S'FCGR3B'
p2627
S'3.88e-01'
p2628
S'1.00e+00'
p2629
tp2630
a(S'Perls_12_snp135_maf'
p2631
S'Zeller_10'
p2632
S'FER'
p2633
S'9.58e-04'
p2634
S'8.59e-01'
p2635
tp2636
a(S'Perls_12_snp135_maf'
p2637
S'Zeller_10'
p2638
S'FHL3'
p2639
S'1.28e-01'
p2640
S'1.00e+00'
p2641
tp2642
a(S'Perls_12_snp135_maf'
p2643
S'Zeller_10'
p2644
S'FZD1'
p2645
S'9.61e-01'
p2646
S'1.00e+00'
p2647
tp2648
a(S'Perls_12_snp135_maf'
p2649
S'Zeller_10'
p2650
S'GALNT11'
p2651
S'9.27e-01'
p2652
S'1.00e+00'
p2653
tp2654
ag44
a(S'Perls_12_snp135_maf'
p2655
S'Zeller_10'
p2656
S'GNG8'
p2657
S'2.01e-03'
p2658
S'9.36e-01'
p2659
tp2660
ag44
a(S'Perls_12_snp135_maf'
p2661
S'Zeller_10'
p2662
S'GP2'
p2663
S'8.86e-01'
p2664
S'1.00e+00'
p2665
tp2666
a(S'Perls_12_snp135_maf'
p2667
S'Zeller_10'
p2668
S'GPR146'
p2669
S'3.19e-01'
p2670
S'1.00e+00'
p2671
tp2672
a(S'Perls_12_snp135_maf'
p2673
S'Zeller_10'
p2674
S'GPR68'
p2675
S'3.29e-01'
p2676
S'1.00e+00'
p2677
tp2678
a(S'Perls_12_snp135_maf'
p2679
S'Zeller_10'
p2680
S'H6PD'
p2681
S'3.91e-01'
p2682
S'1.00e+00'
p2683
tp2684
a(S'Perls_12_snp135_maf'
p2685
S'Zeller_10'
p2686
S'HAO1'
p2687
S'2.90e-02'
p2688
S'1.00e+00'
p2689
tp2690
ag44
a(S'Perls_12_snp135_maf'
p2691
S'Zeller_10'
p2692
S'HMGA1'
p2693
S'8.94e-01'
p2694
S'1.00e+00'
p2695
tp2696
ag44
ag44
a(S'Perls_12_snp135_maf'
p2697
S'Zeller_10'
p2698
S'IGFBP4'
p2699
S'8.86e-01'
p2700
S'1.00e+00'
p2701
tp2702
a(S'Perls_12_snp135_maf'
p2703
S'Zeller_10'
p2704
S'ISCU'
p2705
S'1.12e-03'
p2706
S'8.59e-01'
p2707
tp2708
ag44
a(S'Perls_12_snp135_maf'
p2709
S'Zeller_10'
p2710
S'ITPK1'
p2711
S'1.84e-01'
p2712
S'1.00e+00'
p2713
tp2714
a(S'Perls_12_snp135_maf'
p2715
S'Zeller_10'
p2716
S'KCTD12'
p2717
S'4.52e-01'
p2718
S'1.00e+00'
p2719
tp2720
ag44
a(S'Perls_12_snp135_maf'
p2721
S'Zeller_10'
p2722
S'KRTAP10-9'
p2723
S'9.83e-06'
p2724
S'1.19e-01'
p2725
tp2726
a(S'Perls_12_snp135_maf'
p2727
S'Zeller_10'
p2728
S'LRRC37A4'
p2729
S'6.46e-01'
p2730
S'1.00e+00'
p2731
tp2732
a(S'Perls_12_snp135_maf'
p2733
S'Zeller_10'
p2734
S'LRRC8E'
p2735
S'3.85e-01'
p2736
S'1.00e+00'
p2737
tp2738
a(S'Perls_12_snp135_maf'
p2739
S'Zeller_10'
p2740
S'LTBP4'
p2741
S'3.27e-01'
p2742
S'1.00e+00'
p2743
tp2744
a(S'Perls_12_snp135_maf'
p2745
S'Zeller_10'
p2746
S'LY6H'
p2747
S'9.77e-01'
p2748
S'1.00e+00'
p2749
tp2750
a(S'Perls_12_snp135_maf'
p2751
S'Zeller_10'
p2752
S'MAGED2'
p2753
S'7.97e-03'
p2754
S'9.86e-01'
p2755
tp2756
a(S'Perls_12_snp135_maf'
p2757
S'Zeller_10'
p2758
S'MAPK8IP1'
p2759
S'5.05e-01'
p2760
S'1.00e+00'
p2761
tp2762
a(S'Perls_12_snp135_maf'
p2763
S'Zeller_10'
p2764
S'MATN2'
p2765
S'5.03e-01'
p2766
S'1.00e+00'
p2767
tp2768
a(S'Perls_12_snp135_maf'
p2769
S'Zeller_10'
p2770
S'MEX3D'
p2771
S'1.92e-03'
p2772
S'9.36e-01'
p2773
tp2774
a(S'Perls_12_snp135_maf'
p2775
S'Zeller_10'
p2776
S'MFHAS1'
p2777
S'1.21e-03'
p2778
S'8.59e-01'
p2779
tp2780
a(S'Perls_12_snp135_maf'
p2781
S'Zeller_10'
p2782
S'MPHOSPH6'
p2783
S'4.01e-01'
p2784
S'1.00e+00'
p2785
tp2786
a(S'Perls_12_snp135_maf'
p2787
S'Zeller_10'
p2788
S'MSH3'
p2789
S'2.12e-02'
p2790
S'1.00e+00'
p2791
tp2792
a(S'Perls_12_snp135_maf'
p2793
S'Zeller_10'
p2794
S'MYLK2'
p2795
S'9.18e-04'
p2796
S'8.59e-01'
p2797
tp2798
a(S'Perls_12_snp135_maf'
p2799
S'Zeller_10'
p2800
S'MYO1G'
p2801
S'8.03e-01'
p2802
S'1.00e+00'
p2803
tp2804
a(S'Perls_12_snp135_maf'
p2805
S'Zeller_10'
p2806
S'NAV1'
p2807
S'4.17e-01'
p2808
S'1.00e+00'
p2809
tp2810
a(S'Perls_12_snp135_maf'
p2811
S'Zeller_10'
p2812
S'NFATC3'
p2813
S'1.00e+00'
p2814
S'1.00e+00'
p2815
tp2816
a(S'Perls_12_snp135_maf'
p2817
S'Zeller_10'
p2818
S'NOTCH4'
p2819
S'9.48e-01'
p2820
S'1.00e+00'
p2821
tp2822
a(S'Perls_12_snp135_maf'
p2823
S'Zeller_10'
p2824
S'NPL'
p2825
S'1.15e-03'
p2826
S'8.59e-01'
p2827
tp2828
ag44
a(S'Perls_12_snp135_maf'
p2829
S'Zeller_10'
p2830
S'NUDT11'
p2831
S'1.13e-03'
p2832
S'8.59e-01'
p2833
tp2834
a(S'Perls_12_snp135_maf'
p2835
S'Zeller_10'
p2836
S'OR1L4'
p2837
S'8.84e-01'
p2838
S'1.00e+00'
p2839
tp2840
ag44
ag44
a(S'Perls_12_snp135_maf'
p2841
S'Zeller_10'
p2842
S'P2RX5'
p2843
S'5.05e-01'
p2844
S'1.00e+00'
p2845
tp2846
ag44
a(S'Perls_12_snp135_maf'
p2847
S'Zeller_10'
p2848
S'PALMD'
p2849
S'7.34e-01'
p2850
S'1.00e+00'
p2851
tp2852
a(S'Perls_12_snp135_maf'
p2853
S'Zeller_10'
p2854
S'PCCB'
p2855
S'1.56e-01'
p2856
S'1.00e+00'
p2857
tp2858
a(S'Perls_12_snp135_maf'
p2859
S'Zeller_10'
p2860
S'PPP2R3C'
p2861
S'4.15e-01'
p2862
S'1.00e+00'
p2863
tp2864
a(S'Perls_12_snp135_maf'
p2865
S'Zeller_10'
p2866
S'PREX1'
p2867
S'1.94e-03'
p2868
S'9.36e-01'
p2869
tp2870
a(S'Perls_12_snp135_maf'
p2871
S'Zeller_10'
p2872
S'PRLR'
p2873
S'1.02e-03'
p2874
S'8.59e-01'
p2875
tp2876
a(S'Perls_12_snp135_maf'
p2877
S'Zeller_10'
p2878
S'PRPS2'
p2879
S'1.57e-03'
p2880
S'9.03e-01'
p2881
tp2882
a(S'Perls_12_snp135_maf'
p2883
S'Zeller_10'
p2884
S'PRRG1'
p2885
S'6.88e-01'
p2886
S'1.00e+00'
p2887
tp2888
a(S'Perls_12_snp135_maf'
p2889
S'Zeller_10'
p2890
S'PRUNE'
p2891
S'1.00e+00'
p2892
S'1.00e+00'
p2893
tp2894
ag44
a(S'Perls_12_snp135_maf'
p2895
S'Zeller_10'
p2896
S'RAB30'
p2897
S'7.80e-04'
p2898
S'8.59e-01'
p2899
tp2900
a(S'Perls_12_snp135_maf'
p2901
S'Zeller_10'
p2902
S'RAB36'
p2903
S'5.11e-04'
p2904
S'8.59e-01'
p2905
tp2906
a(S'Perls_12_snp135_maf'
p2907
S'Zeller_10'
p2908
S'RBM5'
p2909
S'2.31e-01'
p2910
S'1.00e+00'
p2911
tp2912
a(S'Perls_12_snp135_maf'
p2913
S'Zeller_10'
p2914
S'RHEB'
p2915
S'2.30e-03'
p2916
S'9.52e-01'
p2917
tp2918
a(S'Perls_12_snp135_maf'
p2919
S'Zeller_10'
p2920
S'RHOT2'
p2921
S'1.00e+00'
p2922
S'1.00e+00'
p2923
tp2924
a(S'Perls_12_snp135_maf'
p2925
S'Zeller_10'
p2926
S'RMND5A'
p2927
S'5.49e-01'
p2928
S'1.00e+00'
p2929
tp2930
a(S'Perls_12_snp135_maf'
p2931
S'Zeller_10'
p2932
S'RNF13'
p2933
S'1.29e-01'
p2934
S'1.00e+00'
p2935
tp2936
ag44
a(S'Perls_12_snp135_maf'
p2937
S'Zeller_10'
p2938
S'SCAF1'
p2939
S'2.34e-03'
p2940
S'9.52e-01'
p2941
tp2942
a(S'Perls_12_snp135_maf'
p2943
S'Zeller_10'
p2944
S'SCD'
p2945
S'1.07e-03'
p2946
S'8.59e-01'
p2947
tp2948
ag44
a(S'Perls_12_snp135_maf'
p2949
S'Zeller_10'
p2950
S'SCNN1A'
p2951
S'1.07e-03'
p2952
S'8.59e-01'
p2953
tp2954
a(S'Perls_12_snp135_maf'
p2955
S'Zeller_10'
p2956
S'SECTM1'
p2957
S'5.01e-01'
p2958
S'1.00e+00'
p2959
tp2960
a(S'Perls_12_snp135_maf'
p2961
S'Zeller_10'
p2962
S'SERINC3'
p2963
S'4.53e-01'
p2964
S'1.00e+00'
p2965
tp2966
a(S'Perls_12_snp135_maf'
p2967
S'Zeller_10'
p2968
S'SERTAD2'
p2969
S'1.26e-01'
p2970
S'1.00e+00'
p2971
tp2972
a(S'Perls_12_snp135_maf'
p2973
S'Zeller_10'
p2974
S'SLC11A2'
p2975
S'2.00e-01'
p2976
S'1.00e+00'
p2977
tp2978
a(S'Perls_12_snp135_maf'
p2979
S'Zeller_10'
p2980
S'SLC18A1'
p2981
S'6.00e-04'
p2982
S'8.59e-01'
p2983
tp2984
a(S'Perls_12_snp135_maf'
p2985
S'Zeller_10'
p2986
S'SLC24A4'
p2987
S'1.67e-03'
p2988
S'9.22e-01'
p2989
tp2990
a(S'Perls_12_snp135_maf'
p2991
S'Zeller_10'
p2992
S'SLC34A2'
p2993
S'1.88e-01'
p2994
S'1.00e+00'
p2995
tp2996
ag44
a(S'Perls_12_snp135_maf'
p2997
S'Zeller_10'
p2998
S'SLC4A7'
p2999
S'6.69e-01'
p3000
S'1.00e+00'
p3001
tp3002
a(S'Perls_12_snp135_maf'
p3003
S'Zeller_10'
p3004
S'SLC6A9'
p3005
S'1.53e-01'
p3006
S'1.00e+00'
p3007
tp3008
a(S'Perls_12_snp135_maf'
p3009
S'Zeller_10'
p3010
S'SORBS3'
p3011
S'1.39e-03'
p3012
S'8.91e-01'
p3013
tp3014
a(S'Perls_12_snp135_maf'
p3015
S'Zeller_10'
p3016
S'SPHAR'
p3017
S'8.10e-01'
p3018
S'1.00e+00'
p3019
tp3020
a(S'Perls_12_snp135_maf'
p3021
S'Zeller_10'
p3022
S'SRPR'
p3023
S'5.80e-01'
p3024
S'1.00e+00'
p3025
tp3026
a(S'Perls_12_snp135_maf'
p3027
S'Zeller_10'
p3028
S'STX18'
p3029
S'9.76e-01'
p3030
S'1.00e+00'
p3031
tp3032
a(S'Perls_12_snp135_maf'
p3033
S'Zeller_10'
p3034
S'SURF2'
p3035
S'2.76e-01'
p3036
S'1.00e+00'
p3037
tp3038
a(S'Perls_12_snp135_maf'
p3039
S'Zeller_10'
p3040
S'SYK'
p3041
S'6.45e-01'
p3042
S'1.00e+00'
p3043
tp3044
a(S'Perls_12_snp135_maf'
p3045
S'Zeller_10'
p3046
S'SYT11'
p3047
S'1.09e-01'
p3048
S'1.00e+00'
p3049
tp3050
a(S'Perls_12_snp135_maf'
p3051
S'Zeller_10'
p3052
S'TBC1D12'
p3053
S'9.63e-01'
p3054
S'1.00e+00'
p3055
tp3056
ag44
a(S'Perls_12_snp135_maf'
p3057
S'Zeller_10'
p3058
S'TCERG1'
p3059
S'9.05e-01'
p3060
S'1.00e+00'
p3061
tp3062
a(S'Perls_12_snp135_maf'
p3063
S'Zeller_10'
p3064
S'TERT'
p3065
S'7.71e-01'
p3066
S'1.00e+00'
p3067
tp3068
ag44
ag44
a(S'Perls_12_snp135_maf'
p3069
S'Zeller_10'
p3070
S'TMEM132D'
p3071
S'4.00e-01'
p3072
S'1.00e+00'
p3073
tp3074
a(S'Perls_12_snp135_maf'
p3075
S'Zeller_10'
p3076
S'TMEM186'
p3077
S'6.41e-01'
p3078
S'1.00e+00'
p3079
tp3080
a(S'Perls_12_snp135_maf'
p3081
S'Zeller_10'
p3082
S'TMEM60'
p3083
S'2.50e-01'
p3084
S'1.00e+00'
p3085
tp3086
a(S'Perls_12_snp135_maf'
p3087
S'Zeller_10'
p3088
S'TMEM62'
p3089
S'3.78e-01'
p3090
S'1.00e+00'
p3091
tp3092
a(S'Perls_12_snp135_maf'
p3093
S'Zeller_10'
p3094
S'TMF1'
p3095
S'3.69e-01'
p3096
S'1.00e+00'
p3097
tp3098
a(S'Perls_12_snp135_maf'
p3099
S'Zeller_10'
p3100
S'TNPO3'
p3101
S'4.64e-01'
p3102
S'1.00e+00'
p3103
tp3104
a(S'Perls_12_snp135_maf'
p3105
S'Zeller_10'
p3106
S'TPST1'
p3107
S'9.98e-01'
p3108
S'1.00e+00'
p3109
tp3110
a(S'Perls_12_snp135_maf'
p3111
S'Zeller_10'
p3112
S'TRIM38'
p3113
S'1.64e-01'
p3114
S'1.00e+00'
p3115
tp3116
a(S'Perls_12_snp135_maf'
p3117
S'Zeller_10'
p3118
S'USP4'
p3119
S'4.37e-01'
p3120
S'1.00e+00'
p3121
tp3122
ag44
a(S'Perls_12_snp135_maf'
p3123
S'Zeller_10'
p3124
S'YY1AP1'
p3125
S'8.38e-02'
p3126
S'1.00e+00'
p3127
tp3128
a(S'Perls_12_snp135_maf'
p3129
S'Zeller_10'
p3130
S'ZBBX'
p3131
S'9.45e-01'
p3132
S'1.00e+00'
p3133
tp3134
a(S'Perls_12_snp135_maf'
p3135
S'Zeller_10'
p3136
S'ZBTB20'
p3137
S'3.35e-01'
p3138
S'1.00e+00'
p3139
tp3140
ag44
a(S'Perls_12_snp135_maf'
p3141
S'Zeller_10'
p3142
S'ZNF570'
p3143
S'4.99e-01'
p3144
S'1.00e+00'
p3145
tp3146
a(S'Perls_12_snp135_maf'
p3147
S'Zeller_10'
p3148
S'ZNF574'
p3149
S'1.15e-01'
p3150
S'1.00e+00'
p3151
tp3152
ag44
ag44
a(S'Perls_12_snp135_maf'
p3153
S'Zeller_10'
p3154
S'ZRANB3'
p3155
S'4.89e-02'
p3156
S'1.00e+00'
p3157
tp3158
a(S'Perls_12_snp135_maf'
p3159
S'Zeller_10'
p3160
S'ZSCAN1'
p3161
S'7.60e-01'
p3162
S'1.00e+00'
p3163
tp3164
asS'Longevity_2014_Age90---Zeller_10'
p3165
(lp3166
(S'Longevity_2014_Age90'
p3167
S'Zeller_10'
p3168
S'ABCA4'
p3169
S'2.88e-01'
p3170
S'9.84e-01'
p3171
tp3172
a(S'Longevity_2014_Age90'
p3173
S'Zeller_10'
p3174
S'ABCA7'
p3175
S'4.57e-01'
p3176
S'1.00e+00'
p3177
tp3178
a(S'Longevity_2014_Age90'
p3179
S'Zeller_10'
p3180
S'ACAD8'
p3181
S'1.03e-01'
p3182
S'9.79e-01'
p3183
tp3184
ag44
a(S'Longevity_2014_Age90'
p3185
S'Zeller_10'
p3186
S'ADAM15'
p3187
S'5.84e-01'
p3188
S'1.00e+00'
p3189
tp3190
a(S'Longevity_2014_Age90'
p3191
S'Zeller_10'
p3192
S'AFF2'
p3193
S'1.25e-01'
p3194
S'9.79e-01'
p3195
tp3196
a(S'Longevity_2014_Age90'
p3197
S'Zeller_10'
p3198
S'AIFM2'
p3199
S'2.55e-02'
p3200
S'9.60e-01'
p3201
tp3202
a(S'Longevity_2014_Age90'
p3203
S'Zeller_10'
p3204
S'AIP'
p3205
S'2.50e-01'
p3206
S'9.84e-01'
p3207
tp3208
a(S'Longevity_2014_Age90'
p3209
S'Zeller_10'
p3210
S'AMZ1'
p3211
S'1.53e-03'
p3212
S'6.31e-01'
p3213
tp3214
a(S'Longevity_2014_Age90'
p3215
S'Zeller_10'
p3216
S'AP4S1'
p3217
S'5.72e-02'
p3218
S'9.72e-01'
p3219
tp3220
a(S'Longevity_2014_Age90'
p3221
S'Zeller_10'
p3222
S'APBB1IP'
p3223
S'4.11e-04'
p3224
S'5.82e-01'
p3225
tp3226
ag44
ag44
a(S'Longevity_2014_Age90'
p3227
S'Zeller_10'
p3228
S'ARID2'
p3229
S'2.97e-01'
p3230
S'9.84e-01'
p3231
tp3232
a(S'Longevity_2014_Age90'
p3233
S'Zeller_10'
p3234
S'ASPSCR1'
p3235
S'5.87e-01'
p3236
S'1.00e+00'
p3237
tp3238
a(S'Longevity_2014_Age90'
p3239
S'Zeller_10'
p3240
S'ATG2B'
p3241
S'1.60e-03'
p3242
S'6.31e-01'
p3243
tp3244
a(S'Longevity_2014_Age90'
p3245
S'Zeller_10'
p3246
S'ATP10A'
p3247
S'5.08e-03'
p3248
S'8.26e-01'
p3249
tp3250
a(S'Longevity_2014_Age90'
p3251
S'Zeller_10'
p3252
S'ATRIP'
p3253
S'6.05e-03'
p3254
S'8.32e-01'
p3255
tp3256
a(S'Longevity_2014_Age90'
p3257
S'Zeller_10'
p3258
S'AXL'
p3259
S'7.34e-01'
p3260
S'1.00e+00'
p3261
tp3262
a(S'Longevity_2014_Age90'
p3263
S'Zeller_10'
p3264
S'BAG4'
p3265
S'1.56e-03'
p3266
S'6.31e-01'
p3267
tp3268
ag44
a(S'Longevity_2014_Age90'
p3269
S'Zeller_10'
p3270
S'CASP10'
p3271
S'9.56e-01'
p3272
S'1.00e+00'
p3273
tp3274
a(S'Longevity_2014_Age90'
p3275
S'Zeller_10'
p3276
S'CD1C'
p3277
S'8.82e-01'
p3278
S'1.00e+00'
p3279
tp3280
a(S'Longevity_2014_Age90'
p3281
S'Zeller_10'
p3282
S'CD81'
p3283
S'4.86e-05'
p3284
S'3.10e-01'
p3285
tp3286
a(S'Longevity_2014_Age90'
p3287
S'Zeller_10'
p3288
S'CD99L2'
p3289
S'4.30e-01'
p3290
S'1.00e+00'
p3291
tp3292
a(S'Longevity_2014_Age90'
p3293
S'Zeller_10'
p3294
S'CDK6'
p3295
S'7.92e-01'
p3296
S'1.00e+00'
p3297
tp3298
a(S'Longevity_2014_Age90'
p3299
S'Zeller_10'
p3300
S'CLDN20'
p3301
S'4.23e-01'
p3302
S'1.00e+00'
p3303
tp3304
a(S'Longevity_2014_Age90'
p3305
S'Zeller_10'
p3306
S'CLDN23'
p3307
S'6.00e-01'
p3308
S'1.00e+00'
p3309
tp3310
a(S'Longevity_2014_Age90'
p3311
S'Zeller_10'
p3312
S'COL4A3BP'
p3313
S'2.76e-03'
p3314
S'6.47e-01'
p3315
tp3316
a(S'Longevity_2014_Age90'
p3317
S'Zeller_10'
p3318
S'CRIM1'
p3319
S'1.43e-01'
p3320
S'9.80e-01'
p3321
tp3322
a(S'Longevity_2014_Age90'
p3323
S'Zeller_10'
p3324
S'CTDSPL'
p3325
S'3.68e-01'
p3326
S'9.95e-01'
p3327
tp3328
a(S'Longevity_2014_Age90'
p3329
S'Zeller_10'
p3330
S'CWC15'
p3331
S'1.78e-01'
p3332
S'9.82e-01'
p3333
tp3334
a(S'Longevity_2014_Age90'
p3335
S'Zeller_10'
p3336
S'DAPK2'
p3337
S'4.08e-01'
p3338
S'1.00e+00'
p3339
tp3340
ag44
a(S'Longevity_2014_Age90'
p3341
S'Zeller_10'
p3342
S'DENND1A'
p3343
S'4.25e-01'
p3344
S'1.00e+00'
p3345
tp3346
a(S'Longevity_2014_Age90'
p3347
S'Zeller_10'
p3348
S'DHDH'
p3349
S'4.62e-01'
p3350
S'1.00e+00'
p3351
tp3352
a(S'Longevity_2014_Age90'
p3353
S'Zeller_10'
p3354
S'DKFZP761P0423'
p3355
S'6.98e-01'
p3356
S'1.00e+00'
p3357
tp3358
a(S'Longevity_2014_Age90'
p3359
S'Zeller_10'
p3360
S'DNAJC13'
p3361
S'1.15e-03'
p3362
S'6.31e-01'
p3363
tp3364
a(S'Longevity_2014_Age90'
p3365
S'Zeller_10'
p3366
S'DUSP8'
p3367
S'9.25e-02'
p3368
S'9.79e-01'
p3369
tp3370
ag44
a(S'Longevity_2014_Age90'
p3371
S'Zeller_10'
p3372
S'FADS6'
p3373
S'4.47e-03'
p3374
S'7.90e-01'
p3375
tp3376
a(S'Longevity_2014_Age90'
p3377
S'Zeller_10'
p3378
S'FALZ'
p3379
S'5.45e-06'
p3380
S'6.94e-02'
p3381
tp3382
a(S'Longevity_2014_Age90'
p3383
S'Zeller_10'
p3384
S'FBXL7'
p3385
S'6.95e-01'
p3386
S'1.00e+00'
p3387
tp3388
a(S'Longevity_2014_Age90'
p3389
S'Zeller_10'
p3390
S'FCGR3B'
p3391
S'6.98e-01'
p3392
S'1.00e+00'
p3393
tp3394
a(S'Longevity_2014_Age90'
p3395
S'Zeller_10'
p3396
S'FER'
p3397
S'3.60e-01'
p3398
S'9.95e-01'
p3399
tp3400
a(S'Longevity_2014_Age90'
p3401
S'Zeller_10'
p3402
S'FHL3'
p3403
S'9.16e-01'
p3404
S'1.00e+00'
p3405
tp3406
a(S'Longevity_2014_Age90'
p3407
S'Zeller_10'
p3408
S'FZD1'
p3409
S'3.74e-01'
p3410
S'9.97e-01'
p3411
tp3412
a(S'Longevity_2014_Age90'
p3413
S'Zeller_10'
p3414
S'GALNT11'
p3415
S'2.07e-02'
p3416
S'9.60e-01'
p3417
tp3418
a(S'Longevity_2014_Age90'
p3419
S'Zeller_10'
p3420
S'GFI1'
p3421
S'8.20e-01'
p3422
S'1.00e+00'
p3423
tp3424
a(S'Longevity_2014_Age90'
p3425
S'Zeller_10'
p3426
S'GNG8'
p3427
S'8.03e-01'
p3428
S'1.00e+00'
p3429
tp3430
a(S'Longevity_2014_Age90'
p3431
S'Zeller_10'
p3432
S'GOLGA7'
p3433
S'4.93e-02'
p3434
S'9.60e-01'
p3435
tp3436
a(S'Longevity_2014_Age90'
p3437
S'Zeller_10'
p3438
S'GP2'
p3439
S'1.73e-03'
p3440
S'6.31e-01'
p3441
tp3442
a(S'Longevity_2014_Age90'
p3443
S'Zeller_10'
p3444
S'GPR146'
p3445
S'3.89e-02'
p3446
S'9.60e-01'
p3447
tp3448
a(S'Longevity_2014_Age90'
p3449
S'Zeller_10'
p3450
S'GPR68'
p3451
S'1.51e-03'
p3452
S'6.31e-01'
p3453
tp3454
a(S'Longevity_2014_Age90'
p3455
S'Zeller_10'
p3456
S'H6PD'
p3457
S'8.94e-02'
p3458
S'9.79e-01'
p3459
tp3460
a(S'Longevity_2014_Age90'
p3461
S'Zeller_10'
p3462
S'HAO1'
p3463
S'6.27e-01'
p3464
S'1.00e+00'
p3465
tp3466
a(S'Longevity_2014_Age90'
p3467
S'Zeller_10'
p3468
S'HIST1H2AC'
p3469
S'1.54e-03'
p3470
S'6.31e-01'
p3471
tp3472
a(S'Longevity_2014_Age90'
p3473
S'Zeller_10'
p3474
S'HMGA1'
p3475
S'1.68e-03'
p3476
S'6.31e-01'
p3477
tp3478
ag44
ag44
a(S'Longevity_2014_Age90'
p3479
S'Zeller_10'
p3480
S'IGFBP4'
p3481
S'1.58e-03'
p3482
S'6.31e-01'
p3483
tp3484
a(S'Longevity_2014_Age90'
p3485
S'Zeller_10'
p3486
S'ISCU'
p3487
S'3.31e-01'
p3488
S'9.91e-01'
p3489
tp3490
ag44
a(S'Longevity_2014_Age90'
p3491
S'Zeller_10'
p3492
S'ITPK1'
p3493
S'1.59e-04'
p3494
S'3.87e-01'
p3495
tp3496
a(S'Longevity_2014_Age90'
p3497
S'Zeller_10'
p3498
S'KCTD12'
p3499
S'1.21e-03'
p3500
S'6.31e-01'
p3501
tp3502
ag44
a(S'Longevity_2014_Age90'
p3503
S'Zeller_10'
p3504
S'KRTAP10-9'
p3505
S'7.86e-01'
p3506
S'1.00e+00'
p3507
tp3508
a(S'Longevity_2014_Age90'
p3509
S'Zeller_10'
p3510
S'LRRC37A4'
p3511
S'1.82e-04'
p3512
S'3.87e-01'
p3513
tp3514
a(S'Longevity_2014_Age90'
p3515
S'Zeller_10'
p3516
S'LRRC8E'
p3517
S'8.67e-01'
p3518
S'1.00e+00'
p3519
tp3520
a(S'Longevity_2014_Age90'
p3521
S'Zeller_10'
p3522
S'LTBP4'
p3523
S'2.20e-03'
p3524
S'6.31e-01'
p3525
tp3526
a(S'Longevity_2014_Age90'
p3527
S'Zeller_10'
p3528
S'LY6H'
p3529
S'1.45e-01'
p3530
S'9.80e-01'
p3531
tp3532
a(S'Longevity_2014_Age90'
p3533
S'Zeller_10'
p3534
S'MAGED2'
p3535
S'4.26e-01'
p3536
S'1.00e+00'
p3537
tp3538
a(S'Longevity_2014_Age90'
p3539
S'Zeller_10'
p3540
S'MAPK8IP1'
p3541
S'8.22e-05'
p3542
S'3.49e-01'
p3543
tp3544
a(S'Longevity_2014_Age90'
p3545
S'Zeller_10'
p3546
S'MATN2'
p3547
S'7.30e-04'
p3548
S'6.31e-01'
p3549
tp3550
a(S'Longevity_2014_Age90'
p3551
S'Zeller_10'
p3552
S'MEX3D'
p3553
S'3.03e-01'
p3554
S'9.86e-01'
p3555
tp3556
a(S'Longevity_2014_Age90'
p3557
S'Zeller_10'
p3558
S'MFHAS1'
p3559
S'5.96e-03'
p3560
S'8.32e-01'
p3561
tp3562
a(S'Longevity_2014_Age90'
p3563
S'Zeller_10'
p3564
S'MPHOSPH6'
p3565
S'1.81e-01'
p3566
S'9.82e-01'
p3567
tp3568
a(S'Longevity_2014_Age90'
p3569
S'Zeller_10'
p3570
S'MSH3'
p3571
S'3.87e-01'
p3572
S'9.98e-01'
p3573
tp3574
a(S'Longevity_2014_Age90'
p3575
S'Zeller_10'
p3576
S'MYLK2'
p3577
S'8.72e-01'
p3578
S'1.00e+00'
p3579
tp3580
a(S'Longevity_2014_Age90'
p3581
S'Zeller_10'
p3582
S'MYO1G'
p3583
S'9.74e-04'
p3584
S'6.31e-01'
p3585
tp3586
a(S'Longevity_2014_Age90'
p3587
S'Zeller_10'
p3588
S'NAV1'
p3589
S'6.28e-01'
p3590
S'1.00e+00'
p3591
tp3592
a(S'Longevity_2014_Age90'
p3593
S'Zeller_10'
p3594
S'NFATC3'
p3595
S'1.28e-02'
p3596
S'9.33e-01'
p3597
tp3598
a(S'Longevity_2014_Age90'
p3599
S'Zeller_10'
p3600
S'NOTCH4'
p3601
S'9.25e-01'
p3602
S'1.00e+00'
p3603
tp3604
a(S'Longevity_2014_Age90'
p3605
S'Zeller_10'
p3606
S'NPL'
p3607
S'6.03e-01'
p3608
S'1.00e+00'
p3609
tp3610
ag44
a(S'Longevity_2014_Age90'
p3611
S'Zeller_10'
p3612
S'NUDT11'
p3613
S'2.81e-01'
p3614
S'9.84e-01'
p3615
tp3616
a(S'Longevity_2014_Age90'
p3617
S'Zeller_10'
p3618
S'OR1L4'
p3619
S'1.95e-03'
p3620
S'6.31e-01'
p3621
tp3622
ag44
ag44
a(S'Longevity_2014_Age90'
p3623
S'Zeller_10'
p3624
S'P2RX5'
p3625
S'2.38e-04'
p3626
S'4.32e-01'
p3627
tp3628
ag44
a(S'Longevity_2014_Age90'
p3629
S'Zeller_10'
p3630
S'PALMD'
p3631
S'8.23e-01'
p3632
S'1.00e+00'
p3633
tp3634
a(S'Longevity_2014_Age90'
p3635
S'Zeller_10'
p3636
S'PCCB'
p3637
S'5.60e-04'
p3638
S'5.94e-01'
p3639
tp3640
a(S'Longevity_2014_Age90'
p3641
S'Zeller_10'
p3642
S'PPP2R3C'
p3643
S'1.97e-02'
p3644
S'9.60e-01'
p3645
tp3646
a(S'Longevity_2014_Age90'
p3647
S'Zeller_10'
p3648
S'PREX1'
p3649
S'2.90e-01'
p3650
S'9.84e-01'
p3651
tp3652
a(S'Longevity_2014_Age90'
p3653
S'Zeller_10'
p3654
S'PRLR'
p3655
S'5.87e-01'
p3656
S'1.00e+00'
p3657
tp3658
a(S'Longevity_2014_Age90'
p3659
S'Zeller_10'
p3660
S'PRPS2'
p3661
S'6.94e-01'
p3662
S'1.00e+00'
p3663
tp3664
a(S'Longevity_2014_Age90'
p3665
S'Zeller_10'
p3666
S'PRRG1'
p3667
S'1.34e-03'
p3668
S'6.31e-01'
p3669
tp3670
a(S'Longevity_2014_Age90'
p3671
S'Zeller_10'
p3672
S'PRUNE'
p3673
S'2.06e-02'
p3674
S'9.60e-01'
p3675
tp3676
ag44
a(S'Longevity_2014_Age90'
p3677
S'Zeller_10'
p3678
S'RAB30'
p3679
S'2.45e-01'
p3680
S'9.84e-01'
p3681
tp3682
a(S'Longevity_2014_Age90'
p3683
S'Zeller_10'
p3684
S'RAB36'
p3685
S'4.77e-01'
p3686
S'1.00e+00'
p3687
tp3688
a(S'Longevity_2014_Age90'
p3689
S'Zeller_10'
p3690
S'RBM5'
p3691
S'3.97e-01'
p3692
S'9.98e-01'
p3693
tp3694
a(S'Longevity_2014_Age90'
p3695
S'Zeller_10'
p3696
S'RHEB'
p3697
S'3.40e-02'
p3698
S'9.60e-01'
p3699
tp3700
a(S'Longevity_2014_Age90'
p3701
S'Zeller_10'
p3702
S'RHOT2'
p3703
S'6.15e-01'
p3704
S'1.00e+00'
p3705
tp3706
a(S'Longevity_2014_Age90'
p3707
S'Zeller_10'
p3708
S'RMND5A'
p3709
S'8.93e-04'
p3710
S'6.31e-01'
p3711
tp3712
a(S'Longevity_2014_Age90'
p3713
S'Zeller_10'
p3714
S'RNF13'
p3715
S'8.60e-01'
p3716
S'1.00e+00'
p3717
tp3718
ag44
a(S'Longevity_2014_Age90'
p3719
S'Zeller_10'
p3720
S'SCAF1'
p3721
S'8.45e-01'
p3722
S'1.00e+00'
p3723
tp3724
a(S'Longevity_2014_Age90'
p3725
S'Zeller_10'
p3726
S'SCD'
p3727
S'1.68e-01'
p3728
S'9.82e-01'
p3729
tp3730
ag44
a(S'Longevity_2014_Age90'
p3731
S'Zeller_10'
p3732
S'SCNN1A'
p3733
S'3.49e-01'
p3734
S'9.92e-01'
p3735
tp3736
a(S'Longevity_2014_Age90'
p3737
S'Zeller_10'
p3738
S'SECTM1'
p3739
S'3.29e-02'
p3740
S'9.60e-01'
p3741
tp3742
a(S'Longevity_2014_Age90'
p3743
S'Zeller_10'
p3744
S'SERINC3'
p3745
S'1.18e-03'
p3746
S'6.31e-01'
p3747
tp3748
a(S'Longevity_2014_Age90'
p3749
S'Zeller_10'
p3750
S'SERTAD2'
p3751
S'1.61e-01'
p3752
S'9.82e-01'
p3753
tp3754
a(S'Longevity_2014_Age90'
p3755
S'Zeller_10'
p3756
S'SLC11A2'
p3757
S'1.85e-01'
p3758
S'9.83e-01'
p3759
tp3760
a(S'Longevity_2014_Age90'
p3761
S'Zeller_10'
p3762
S'SLC18A1'
p3763
S'6.45e-01'
p3764
S'1.00e+00'
p3765
tp3766
a(S'Longevity_2014_Age90'
p3767
S'Zeller_10'
p3768
S'SLC24A4'
p3769
S'6.08e-01'
p3770
S'1.00e+00'
p3771
tp3772
a(S'Longevity_2014_Age90'
p3773
S'Zeller_10'
p3774
S'SLC34A2'
p3775
S'9.56e-01'
p3776
S'1.00e+00'
p3777
tp3778
ag44
a(S'Longevity_2014_Age90'
p3779
S'Zeller_10'
p3780
S'SLC4A7'
p3781
S'2.21e-01'
p3782
S'9.83e-01'
p3783
tp3784
a(S'Longevity_2014_Age90'
p3785
S'Zeller_10'
p3786
S'SLC6A9'
p3787
S'4.79e-02'
p3788
S'9.60e-01'
p3789
tp3790
a(S'Longevity_2014_Age90'
p3791
S'Zeller_10'
p3792
S'SORBS3'
p3793
S'2.75e-01'
p3794
S'9.84e-01'
p3795
tp3796
a(S'Longevity_2014_Age90'
p3797
S'Zeller_10'
p3798
S'SPHAR'
p3799
S'1.40e-03'
p3800
S'6.31e-01'
p3801
tp3802
a(S'Longevity_2014_Age90'
p3803
S'Zeller_10'
p3804
S'SRPR'
p3805
S'8.57e-01'
p3806
S'1.00e+00'
p3807
tp3808
a(S'Longevity_2014_Age90'
p3809
S'Zeller_10'
p3810
S'STX18'
p3811
S'1.13e-01'
p3812
S'9.79e-01'
p3813
tp3814
a(S'Longevity_2014_Age90'
p3815
S'Zeller_10'
p3816
S'SURF2'
p3817
S'8.83e-01'
p3818
S'1.00e+00'
p3819
tp3820
a(S'Longevity_2014_Age90'
p3821
S'Zeller_10'
p3822
S'SYK'
p3823
S'4.45e-01'
p3824
S'1.00e+00'
p3825
tp3826
a(S'Longevity_2014_Age90'
p3827
S'Zeller_10'
p3828
S'SYT11'
p3829
S'5.57e-04'
p3830
S'5.94e-01'
p3831
tp3832
a(S'Longevity_2014_Age90'
p3833
S'Zeller_10'
p3834
S'TBC1D12'
p3835
S'3.02e-01'
p3836
S'9.85e-01'
p3837
tp3838
ag44
a(S'Longevity_2014_Age90'
p3839
S'Zeller_10'
p3840
S'TCERG1'
p3841
S'8.21e-01'
p3842
S'1.00e+00'
p3843
tp3844
a(S'Longevity_2014_Age90'
p3845
S'Zeller_10'
p3846
S'TERT'
p3847
S'1.82e-04'
p3848
S'3.87e-01'
p3849
tp3850
ag44
ag44
a(S'Longevity_2014_Age90'
p3851
S'Zeller_10'
p3852
S'TMEM132D'
p3853
S'1.07e-03'
p3854
S'6.31e-01'
p3855
tp3856
a(S'Longevity_2014_Age90'
p3857
S'Zeller_10'
p3858
S'TMEM186'
p3859
S'1.28e-03'
p3860
S'6.31e-01'
p3861
tp3862
a(S'Longevity_2014_Age90'
p3863
S'Zeller_10'
p3864
S'TMEM60'
p3865
S'7.99e-01'
p3866
S'1.00e+00'
p3867
tp3868
a(S'Longevity_2014_Age90'
p3869
S'Zeller_10'
p3870
S'TMEM62'
p3871
S'9.73e-02'
p3872
S'9.79e-01'
p3873
tp3874
a(S'Longevity_2014_Age90'
p3875
S'Zeller_10'
p3876
S'TMF1'
p3877
S'1.01e-03'
p3878
S'6.31e-01'
p3879
tp3880
a(S'Longevity_2014_Age90'
p3881
S'Zeller_10'
p3882
S'TNPO3'
p3883
S'5.41e-04'
p3884
S'5.94e-01'
p3885
tp3886
a(S'Longevity_2014_Age90'
p3887
S'Zeller_10'
p3888
S'TPST1'
p3889
S'1.84e-02'
p3890
S'9.59e-01'
p3891
tp3892
a(S'Longevity_2014_Age90'
p3893
S'Zeller_10'
p3894
S'TRIM38'
p3895
S'3.91e-04'
p3896
S'5.82e-01'
p3897
tp3898
a(S'Longevity_2014_Age90'
p3899
S'Zeller_10'
p3900
S'USP4'
p3901
S'8.13e-03'
p3902
S'9.33e-01'
p3903
tp3904
ag44
a(S'Longevity_2014_Age90'
p3905
S'Zeller_10'
p3906
S'YY1AP1'
p3907
S'8.76e-02'
p3908
S'9.79e-01'
p3909
tp3910
a(S'Longevity_2014_Age90'
p3911
S'Zeller_10'
p3912
S'ZBBX'
p3913
S'1.64e-03'
p3914
S'6.31e-01'
p3915
tp3916
a(S'Longevity_2014_Age90'
p3917
S'Zeller_10'
p3918
S'ZBTB20'
p3919
S'3.43e-01'
p3920
S'9.91e-01'
p3921
tp3922
ag44
a(S'Longevity_2014_Age90'
p3923
S'Zeller_10'
p3924
S'ZNF570'
p3925
S'4.69e-01'
p3926
S'1.00e+00'
p3927
tp3928
a(S'Longevity_2014_Age90'
p3929
S'Zeller_10'
p3930
S'ZNF574'
p3931
S'3.40e-01'
p3932
S'9.91e-01'
p3933
tp3934
ag44
ag44
a(S'Longevity_2014_Age90'
p3935
S'Zeller_10'
p3936
S'ZRANB3'
p3937
S'3.52e-01'
p3938
S'9.94e-01'
p3939
tp3940
a(S'Longevity_2014_Age90'
p3941
S'Zeller_10'
p3942
S'ZSCAN1'
p3943
S'3.21e-02'
p3944
S'9.60e-01'
p3945
tp3946
asS'Longevity_2014_Age90---Dixon_07'
p3947
(lp3948
(S'Longevity_2014_Age90'
p3949
S'Dixon_07'
p3950
S'ABCA4'
p3951
S'1.09e-01'
p3952
S'1.00e+00'
p3953
tp3954
a(S'Longevity_2014_Age90'
p3955
S'Dixon_07'
p3956
S'ABCA7'
p3957
S'4.11e-03'
p3958
S'7.52e-01'
p3959
tp3960
a(S'Longevity_2014_Age90'
p3961
S'Dixon_07'
p3962
S'ACAD8'
p3963
S'2.80e-01'
p3964
S'1.00e+00'
p3965
tp3966
a(S'Longevity_2014_Age90'
p3967
S'Dixon_07'
p3968
S'ACADL'
p3969
S'8.49e-02'
p3970
S'1.00e+00'
p3971
tp3972
a(S'Longevity_2014_Age90'
p3973
S'Dixon_07'
p3974
S'ADAM15'
p3975
S'2.63e-02'
p3976
S'1.00e+00'
p3977
tp3978
a(S'Longevity_2014_Age90'
p3979
S'Dixon_07'
p3980
S'AFF2'
p3981
S'5.68e-01'
p3982
S'1.00e+00'
p3983
tp3984
ag44
a(S'Longevity_2014_Age90'
p3985
S'Dixon_07'
p3986
S'AIP'
p3987
S'1.23e-02'
p3988
S'9.86e-01'
p3989
tp3990
a(S'Longevity_2014_Age90'
p3991
S'Dixon_07'
p3992
S'AMZ1'
p3993
S'1.00e+00'
p3994
S'1.00e+00'
p3995
tp3996
a(S'Longevity_2014_Age90'
p3997
S'Dixon_07'
p3998
S'AP4S1'
p3999
S'3.27e-01'
p4000
S'1.00e+00'
p4001
tp4002
a(S'Longevity_2014_Age90'
p4003
S'Dixon_07'
p4004
S'APBB1IP'
p4005
S'8.17e-01'
p4006
S'1.00e+00'
p4007
tp4008
a(S'Longevity_2014_Age90'
p4009
S'Dixon_07'
p4010
S'APOBEC1'
p4011
S'8.67e-02'
p4012
S'1.00e+00'
p4013
tp4014
a(S'Longevity_2014_Age90'
p4015
S'Dixon_07'
p4016
S'ARHGAP27'
p4017
S'1.72e-04'
p4018
S'5.12e-01'
p4019
tp4020
a(S'Longevity_2014_Age90'
p4021
S'Dixon_07'
p4022
S'ARID2'
p4023
S'7.39e-01'
p4024
S'1.00e+00'
p4025
tp4026
a(S'Longevity_2014_Age90'
p4027
S'Dixon_07'
p4028
S'ASPSCR1'
p4029
S'6.26e-01'
p4030
S'1.00e+00'
p4031
tp4032
ag44
a(S'Longevity_2014_Age90'
p4033
S'Dixon_07'
p4034
S'ATP10A'
p4035
S'9.60e-01'
p4036
S'1.00e+00'
p4037
tp4038
ag44
a(S'Longevity_2014_Age90'
p4039
S'Dixon_07'
p4040
S'AXL'
p4041
S'9.39e-04'
p4042
S'6.23e-01'
p4043
tp4044
a(S'Longevity_2014_Age90'
p4045
S'Dixon_07'
p4046
S'BAG4'
p4047
S'8.41e-01'
p4048
S'1.00e+00'
p4049
tp4050
a(S'Longevity_2014_Age90'
p4051
S'Dixon_07'
p4052
S'C21orf29'
p4053
S'1.35e-03'
p4054
S'6.23e-01'
p4055
tp4056
a(S'Longevity_2014_Age90'
p4057
S'Dixon_07'
p4058
S'CASP10'
p4059
S'8.60e-01'
p4060
S'1.00e+00'
p4061
tp4062
a(S'Longevity_2014_Age90'
p4063
S'Dixon_07'
p4064
S'CD1C'
p4065
S'1.03e-03'
p4066
S'6.23e-01'
p4067
tp4068
a(S'Longevity_2014_Age90'
p4069
S'Dixon_07'
p4070
S'CD81'
p4071
S'1.16e-01'
p4072
S'1.00e+00'
p4073
tp4074
a(S'Longevity_2014_Age90'
p4075
S'Dixon_07'
p4076
S'CD99L2'
p4077
S'1.35e-03'
p4078
S'6.23e-01'
p4079
tp4080
a(S'Longevity_2014_Age90'
p4081
S'Dixon_07'
p4082
S'CDK6'
p4083
S'1.56e-03'
p4084
S'6.23e-01'
p4085
tp4086
a(S'Longevity_2014_Age90'
p4087
S'Dixon_07'
p4088
S'CLDN20'
p4089
S'5.12e-02'
p4090
S'1.00e+00'
p4091
tp4092
a(S'Longevity_2014_Age90'
p4093
S'Dixon_07'
p4094
S'CLDN23'
p4095
S'2.18e-02'
p4096
S'1.00e+00'
p4097
tp4098
a(S'Longevity_2014_Age90'
p4099
S'Dixon_07'
p4100
S'COL4A3BP'
p4101
S'8.17e-01'
p4102
S'1.00e+00'
p4103
tp4104
a(S'Longevity_2014_Age90'
p4105
S'Dixon_07'
p4106
S'CRIM1'
p4107
S'1.40e-03'
p4108
S'6.23e-01'
p4109
tp4110
a(S'Longevity_2014_Age90'
p4111
S'Dixon_07'
p4112
S'CTDSPL'
p4113
S'1.88e-02'
p4114
S'1.00e+00'
p4115
tp4116
ag44
a(S'Longevity_2014_Age90'
p4117
S'Dixon_07'
p4118
S'DAPK2'
p4119
S'1.17e-01'
p4120
S'1.00e+00'
p4121
tp4122
a(S'Longevity_2014_Age90'
p4123
S'Dixon_07'
p4124
S'DEFB127'
p4125
S'1.41e-03'
p4126
S'6.23e-01'
p4127
tp4128
a(S'Longevity_2014_Age90'
p4129
S'Dixon_07'
p4130
S'DENND1A'
p4131
S'1.49e-03'
p4132
S'6.23e-01'
p4133
tp4134
a(S'Longevity_2014_Age90'
p4135
S'Dixon_07'
p4136
S'DHDH'
p4137
S'7.27e-01'
p4138
S'1.00e+00'
p4139
tp4140
ag44
a(S'Longevity_2014_Age90'
p4141
S'Dixon_07'
p4142
S'DNAJC13'
p4143
S'2.11e-01'
p4144
S'1.00e+00'
p4145
tp4146
a(S'Longevity_2014_Age90'
p4147
S'Dixon_07'
p4148
S'DUSP8'
p4149
S'9.99e-01'
p4150
S'1.00e+00'
p4151
tp4152
a(S'Longevity_2014_Age90'
p4153
S'Dixon_07'
p4154
S'F7'
p4155
S'1.05e-03'
p4156
S'6.23e-01'
p4157
tp4158
ag44
ag44
a(S'Longevity_2014_Age90'
p4159
S'Dixon_07'
p4160
S'FBXL7'
p4161
S'5.42e-01'
p4162
S'1.00e+00'
p4163
tp4164
a(S'Longevity_2014_Age90'
p4165
S'Dixon_07'
p4166
S'FCGR3B'
p4167
S'2.96e-04'
p4168
S'6.23e-01'
p4169
tp4170
a(S'Longevity_2014_Age90'
p4171
S'Dixon_07'
p4172
S'FER'
p4173
S'8.16e-01'
p4174
S'1.00e+00'
p4175
tp4176
a(S'Longevity_2014_Age90'
p4177
S'Dixon_07'
p4178
S'FHL3'
p4179
S'5.29e-02'
p4180
S'1.00e+00'
p4181
tp4182
a(S'Longevity_2014_Age90'
p4183
S'Dixon_07'
p4184
S'FZD1'
p4185
S'4.59e-01'
p4186
S'1.00e+00'
p4187
tp4188
a(S'Longevity_2014_Age90'
p4189
S'Dixon_07'
p4190
S'GALNT11'
p4191
S'1.48e-03'
p4192
S'6.23e-01'
p4193
tp4194
a(S'Longevity_2014_Age90'
p4195
S'Dixon_07'
p4196
S'GFI1'
p4197
S'4.43e-04'
p4198
S'6.23e-01'
p4199
tp4200
ag44
a(S'Longevity_2014_Age90'
p4201
S'Dixon_07'
p4202
S'GOLGA7'
p4203
S'7.22e-01'
p4204
S'1.00e+00'
p4205
tp4206
a(S'Longevity_2014_Age90'
p4207
S'Dixon_07'
p4208
S'GP2'
p4209
S'2.77e-01'
p4210
S'1.00e+00'
p4211
tp4212
a(S'Longevity_2014_Age90'
p4213
S'Dixon_07'
p4214
S'GPR146'
p4215
S'4.13e-01'
p4216
S'1.00e+00'
p4217
tp4218
a(S'Longevity_2014_Age90'
p4219
S'Dixon_07'
p4220
S'GPR68'
p4221
S'3.55e-01'
p4222
S'1.00e+00'
p4223
tp4224
a(S'Longevity_2014_Age90'
p4225
S'Dixon_07'
p4226
S'H6PD'
p4227
S'1.34e-03'
p4228
S'6.23e-01'
p4229
tp4230
a(S'Longevity_2014_Age90'
p4231
S'Dixon_07'
p4232
S'HAO1'
p4233
S'2.34e-01'
p4234
S'1.00e+00'
p4235
tp4236
a(S'Longevity_2014_Age90'
p4237
S'Dixon_07'
p4238
S'HIST1H2AC'
p4239
S'3.93e-01'
p4240
S'1.00e+00'
p4241
tp4242
a(S'Longevity_2014_Age90'
p4243
S'Dixon_07'
p4244
S'HMGA1'
p4245
S'9.01e-01'
p4246
S'1.00e+00'
p4247
tp4248
a(S'Longevity_2014_Age90'
p4249
S'Dixon_07'
p4250
S'HYDIN'
p4251
S'8.61e-01'
p4252
S'1.00e+00'
p4253
tp4254
a(S'Longevity_2014_Age90'
p4255
S'Dixon_07'
p4256
S'IFNA2'
p4257
S'6.37e-01'
p4258
S'1.00e+00'
p4259
tp4260
a(S'Longevity_2014_Age90'
p4261
S'Dixon_07'
p4262
S'IGFBP4'
p4263
S'9.57e-01'
p4264
S'1.00e+00'
p4265
tp4266
ag44
a(S'Longevity_2014_Age90'
p4267
S'Dixon_07'
p4268
S'ISYNA1'
p4269
S'4.69e-01'
p4270
S'1.00e+00'
p4271
tp4272
a(S'Longevity_2014_Age90'
p4273
S'Dixon_07'
p4274
S'ITPK1'
p4275
S'6.96e-02'
p4276
S'1.00e+00'
p4277
tp4278
a(S'Longevity_2014_Age90'
p4279
S'Dixon_07'
p4280
S'KCTD12'
p4281
S'3.89e-01'
p4282
S'1.00e+00'
p4283
tp4284
a(S'Longevity_2014_Age90'
p4285
S'Dixon_07'
p4286
S'KIAA0195'
p4287
S'9.54e-04'
p4288
S'6.23e-01'
p4289
tp4290
ag44
ag44
a(S'Longevity_2014_Age90'
p4291
S'Dixon_07'
p4292
S'LRRC8E'
p4293
S'1.11e-01'
p4294
S'1.00e+00'
p4295
tp4296
a(S'Longevity_2014_Age90'
p4297
S'Dixon_07'
p4298
S'LTBP4'
p4299
S'8.81e-01'
p4300
S'1.00e+00'
p4301
tp4302
a(S'Longevity_2014_Age90'
p4303
S'Dixon_07'
p4304
S'LY6H'
p4305
S'2.89e-01'
p4306
S'1.00e+00'
p4307
tp4308
a(S'Longevity_2014_Age90'
p4309
S'Dixon_07'
p4310
S'MAGED2'
p4311
S'7.51e-01'
p4312
S'1.00e+00'
p4313
tp4314
a(S'Longevity_2014_Age90'
p4315
S'Dixon_07'
p4316
S'MAPK8IP1'
p4317
S'1.54e-07'
p4318
S'2.02e-03'
p4319
tp4320
a(S'Longevity_2014_Age90'
p4321
S'Dixon_07'
p4322
S'MATN2'
p4323
S'6.65e-01'
p4324
S'1.00e+00'
p4325
tp4326
ag44
a(S'Longevity_2014_Age90'
p4327
S'Dixon_07'
p4328
S'MFHAS1'
p4329
S'3.57e-02'
p4330
S'1.00e+00'
p4331
tp4332
a(S'Longevity_2014_Age90'
p4333
S'Dixon_07'
p4334
S'MPHOSPH6'
p4335
S'3.74e-02'
p4336
S'1.00e+00'
p4337
tp4338
a(S'Longevity_2014_Age90'
p4339
S'Dixon_07'
p4340
S'MSH3'
p4341
S'1.76e-01'
p4342
S'1.00e+00'
p4343
tp4344
a(S'Longevity_2014_Age90'
p4345
S'Dixon_07'
p4346
S'MYLK2'
p4347
S'6.69e-01'
p4348
S'1.00e+00'
p4349
tp4350
a(S'Longevity_2014_Age90'
p4351
S'Dixon_07'
p4352
S'MYO1G'
p4353
S'6.38e-01'
p4354
S'1.00e+00'
p4355
tp4356
a(S'Longevity_2014_Age90'
p4357
S'Dixon_07'
p4358
S'NAV1'
p4359
S'4.29e-05'
p4360
S'2.83e-01'
p4361
tp4362
a(S'Longevity_2014_Age90'
p4363
S'Dixon_07'
p4364
S'NFATC3'
p4365
S'1.65e-01'
p4366
S'1.00e+00'
p4367
tp4368
a(S'Longevity_2014_Age90'
p4369
S'Dixon_07'
p4370
S'NOTCH4'
p4371
S'4.12e-04'
p4372
S'6.23e-01'
p4373
tp4374
a(S'Longevity_2014_Age90'
p4375
S'Dixon_07'
p4376
S'NPL'
p4377
S'8.55e-02'
p4378
S'1.00e+00'
p4379
tp4380
a(S'Longevity_2014_Age90'
p4381
S'Dixon_07'
p4382
S'NR2F1'
p4383
S'7.20e-01'
p4384
S'1.00e+00'
p4385
tp4386
a(S'Longevity_2014_Age90'
p4387
S'Dixon_07'
p4388
S'NUDT11'
p4389
S'1.43e-01'
p4390
S'1.00e+00'
p4391
tp4392
ag44
a(S'Longevity_2014_Age90'
p4393
S'Dixon_07'
p4394
S'OR4F21'
p4395
S'1.27e-02'
p4396
S'9.87e-01'
p4397
tp4398
a(S'Longevity_2014_Age90'
p4399
S'Dixon_07'
p4400
S'OR8B2'
p4401
S'6.05e-01'
p4402
S'1.00e+00'
p4403
tp4404
a(S'Longevity_2014_Age90'
p4405
S'Dixon_07'
p4406
S'P2RX5'
p4407
S'8.07e-01'
p4408
S'1.00e+00'
p4409
tp4410
a(S'Longevity_2014_Age90'
p4411
S'Dixon_07'
p4412
S'PAGE2B'
p4413
S'5.42e-01'
p4414
S'1.00e+00'
p4415
tp4416
a(S'Longevity_2014_Age90'
p4417
S'Dixon_07'
p4418
S'PALMD'
p4419
S'1.09e-03'
p4420
S'6.23e-01'
p4421
tp4422
a(S'Longevity_2014_Age90'
p4423
S'Dixon_07'
p4424
S'PCCB'
p4425
S'2.87e-03'
p4426
S'6.64e-01'
p4427
tp4428
ag44
a(S'Longevity_2014_Age90'
p4429
S'Dixon_07'
p4430
S'PREX1'
p4431
S'1.58e-01'
p4432
S'1.00e+00'
p4433
tp4434
a(S'Longevity_2014_Age90'
p4435
S'Dixon_07'
p4436
S'PRLR'
p4437
S'4.65e-02'
p4438
S'1.00e+00'
p4439
tp4440
a(S'Longevity_2014_Age90'
p4441
S'Dixon_07'
p4442
S'PRPS2'
p4443
S'9.49e-01'
p4444
S'1.00e+00'
p4445
tp4446
a(S'Longevity_2014_Age90'
p4447
S'Dixon_07'
p4448
S'PRRG1'
p4449
S'8.81e-01'
p4450
S'1.00e+00'
p4451
tp4452
a(S'Longevity_2014_Age90'
p4453
S'Dixon_07'
p4454
S'PRUNE'
p4455
S'3.13e-03'
p4456
S'6.75e-01'
p4457
tp4458
a(S'Longevity_2014_Age90'
p4459
S'Dixon_07'
p4460
S'PTPRB'
p4461
S'1.65e-02'
p4462
S'1.00e+00'
p4463
tp4464
a(S'Longevity_2014_Age90'
p4465
S'Dixon_07'
p4466
S'RAB30'
p4467
S'1.94e-01'
p4468
S'1.00e+00'
p4469
tp4470
a(S'Longevity_2014_Age90'
p4471
S'Dixon_07'
p4472
S'RAB36'
p4473
S'1.21e-01'
p4474
S'1.00e+00'
p4475
tp4476
a(S'Longevity_2014_Age90'
p4477
S'Dixon_07'
p4478
S'RBM5'
p4479
S'8.00e-01'
p4480
S'1.00e+00'
p4481
tp4482
a(S'Longevity_2014_Age90'
p4483
S'Dixon_07'
p4484
S'RHEB'
p4485
S'1.01e-01'
p4486
S'1.00e+00'
p4487
tp4488
a(S'Longevity_2014_Age90'
p4489
S'Dixon_07'
p4490
S'RHOT2'
p4491
S'1.08e-03'
p4492
S'6.23e-01'
p4493
tp4494
ag44
a(S'Longevity_2014_Age90'
p4495
S'Dixon_07'
p4496
S'RNF13'
p4497
S'8.72e-01'
p4498
S'1.00e+00'
p4499
tp4500
a(S'Longevity_2014_Age90'
p4501
S'Dixon_07'
p4502
S'ROPN1'
p4503
S'6.38e-01'
p4504
S'1.00e+00'
p4505
tp4506
ag44
a(S'Longevity_2014_Age90'
p4507
S'Dixon_07'
p4508
S'SCD'
p4509
S'7.92e-01'
p4510
S'1.00e+00'
p4511
tp4512
a(S'Longevity_2014_Age90'
p4513
S'Dixon_07'
p4514
S'SCN3B'
p4515
S'1.49e-03'
p4516
S'6.23e-01'
p4517
tp4518
a(S'Longevity_2014_Age90'
p4519
S'Dixon_07'
p4520
S'SCNN1A'
p4521
S'1.42e-01'
p4522
S'1.00e+00'
p4523
tp4524
a(S'Longevity_2014_Age90'
p4525
S'Dixon_07'
p4526
S'SECTM1'
p4527
S'2.32e-01'
p4528
S'1.00e+00'
p4529
tp4530
ag44
a(S'Longevity_2014_Age90'
p4531
S'Dixon_07'
p4532
S'SERTAD2'
p4533
S'6.86e-01'
p4534
S'1.00e+00'
p4535
tp4536
a(S'Longevity_2014_Age90'
p4537
S'Dixon_07'
p4538
S'SLC11A2'
p4539
S'7.26e-04'
p4540
S'6.23e-01'
p4541
tp4542
a(S'Longevity_2014_Age90'
p4543
S'Dixon_07'
p4544
S'SLC18A1'
p4545
S'7.49e-01'
p4546
S'1.00e+00'
p4547
tp4548
a(S'Longevity_2014_Age90'
p4549
S'Dixon_07'
p4550
S'SLC24A4'
p4551
S'6.40e-01'
p4552
S'1.00e+00'
p4553
tp4554
a(S'Longevity_2014_Age90'
p4555
S'Dixon_07'
p4556
S'SLC34A2'
p4557
S'2.12e-03'
p4558
S'6.33e-01'
p4559
tp4560
a(S'Longevity_2014_Age90'
p4561
S'Dixon_07'
p4562
S'SLC35F4'
p4563
S'3.37e-02'
p4564
S'1.00e+00'
p4565
tp4566
a(S'Longevity_2014_Age90'
p4567
S'Dixon_07'
p4568
S'SLC4A7'
p4569
S'7.96e-02'
p4570
S'1.00e+00'
p4571
tp4572
a(S'Longevity_2014_Age90'
p4573
S'Dixon_07'
p4574
S'SLC6A9'
p4575
S'6.20e-01'
p4576
S'1.00e+00'
p4577
tp4578
a(S'Longevity_2014_Age90'
p4579
S'Dixon_07'
p4580
S'SORBS3'
p4581
S'4.66e-01'
p4582
S'1.00e+00'
p4583
tp4584
a(S'Longevity_2014_Age90'
p4585
S'Dixon_07'
p4586
S'SPHAR'
p4587
S'2.14e-01'
p4588
S'1.00e+00'
p4589
tp4590
a(S'Longevity_2014_Age90'
p4591
S'Dixon_07'
p4592
S'SRPR'
p4593
S'5.45e-01'
p4594
S'1.00e+00'
p4595
tp4596
a(S'Longevity_2014_Age90'
p4597
S'Dixon_07'
p4598
S'STX18'
p4599
S'6.04e-02'
p4600
S'1.00e+00'
p4601
tp4602
a(S'Longevity_2014_Age90'
p4603
S'Dixon_07'
p4604
S'SURF2'
p4605
S'7.34e-01'
p4606
S'1.00e+00'
p4607
tp4608
a(S'Longevity_2014_Age90'
p4609
S'Dixon_07'
p4610
S'SYK'
p4611
S'1.61e-03'
p4612
S'6.25e-01'
p4613
tp4614
a(S'Longevity_2014_Age90'
p4615
S'Dixon_07'
p4616
S'SYT11'
p4617
S'5.67e-01'
p4618
S'1.00e+00'
p4619
tp4620
a(S'Longevity_2014_Age90'
p4621
S'Dixon_07'
p4622
S'TBC1D12'
p4623
S'1.06e-04'
p4624
S'4.66e-01'
p4625
tp4626
a(S'Longevity_2014_Age90'
p4627
S'Dixon_07'
p4628
S'TBX1'
p4629
S'1.48e-03'
p4630
S'6.23e-01'
p4631
tp4632
a(S'Longevity_2014_Age90'
p4633
S'Dixon_07'
p4634
S'TCERG1'
p4635
S'9.92e-01'
p4636
S'1.00e+00'
p4637
tp4638
a(S'Longevity_2014_Age90'
p4639
S'Dixon_07'
p4640
S'TERT'
p4641
S'8.16e-01'
p4642
S'1.00e+00'
p4643
tp4644
a(S'Longevity_2014_Age90'
p4645
S'Dixon_07'
p4646
S'TEX15'
p4647
S'1.31e-01'
p4648
S'1.00e+00'
p4649
tp4650
a(S'Longevity_2014_Age90'
p4651
S'Dixon_07'
p4652
S'TFPI2'
p4653
S'7.63e-01'
p4654
S'1.00e+00'
p4655
tp4656
ag44
ag44
a(S'Longevity_2014_Age90'
p4657
S'Dixon_07'
p4658
S'TMEM60'
p4659
S'6.55e-01'
p4660
S'1.00e+00'
p4661
tp4662
a(S'Longevity_2014_Age90'
p4663
S'Dixon_07'
p4664
S'TMEM62'
p4665
S'1.39e-01'
p4666
S'1.00e+00'
p4667
tp4668
a(S'Longevity_2014_Age90'
p4669
S'Dixon_07'
p4670
S'TMF1'
p4671
S'5.90e-01'
p4672
S'1.00e+00'
p4673
tp4674
a(S'Longevity_2014_Age90'
p4675
S'Dixon_07'
p4676
S'TNPO3'
p4677
S'6.18e-01'
p4678
S'1.00e+00'
p4679
tp4680
a(S'Longevity_2014_Age90'
p4681
S'Dixon_07'
p4682
S'TPST1'
p4683
S'9.93e-01'
p4684
S'1.00e+00'
p4685
tp4686
a(S'Longevity_2014_Age90'
p4687
S'Dixon_07'
p4688
S'TRIM38'
p4689
S'4.16e-01'
p4690
S'1.00e+00'
p4691
tp4692
a(S'Longevity_2014_Age90'
p4693
S'Dixon_07'
p4694
S'USP4'
p4695
S'4.07e-01'
p4696
S'1.00e+00'
p4697
tp4698
a(S'Longevity_2014_Age90'
p4699
S'Dixon_07'
p4700
S'USP53'
p4701
S'1.05e-03'
p4702
S'6.23e-01'
p4703
tp4704
a(S'Longevity_2014_Age90'
p4705
S'Dixon_07'
p4706
S'YY1AP1'
p4707
S'1.20e-03'
p4708
S'6.23e-01'
p4709
tp4710
ag44
a(S'Longevity_2014_Age90'
p4711
S'Dixon_07'
p4712
S'ZBTB20'
p4713
S'6.89e-04'
p4714
S'6.23e-01'
p4715
tp4716
a(S'Longevity_2014_Age90'
p4717
S'Dixon_07'
p4718
S'ZNF208'
p4719
S'3.97e-01'
p4720
S'1.00e+00'
p4721
tp4722
a(S'Longevity_2014_Age90'
p4723
S'Dixon_07'
p4724
S'ZNF570'
p4725
S'5.17e-04'
p4726
S'6.23e-01'
p4727
tp4728
a(S'Longevity_2014_Age90'
p4729
S'Dixon_07'
p4730
S'ZNF574'
p4731
S'8.64e-04'
p4732
S'6.23e-01'
p4733
tp4734
a(S'Longevity_2014_Age90'
p4735
S'Dixon_07'
p4736
S'ZNF678'
p4737
S'6.94e-01'
p4738
S'1.00e+00'
p4739
tp4740
a(S'Longevity_2014_Age90'
p4741
S'Dixon_07'
p4742
S'ZNF84'
p4743
S'1.94e-04'
p4744
S'5.12e-01'
p4745
tp4746
a(S'Longevity_2014_Age90'
p4747
S'Dixon_07'
p4748
S'ZRANB3'
p4749
S'4.77e-04'
p4750
S'6.23e-01'
p4751
tp4752
a(S'Longevity_2014_Age90'
p4753
S'Dixon_07'
p4754
S'ZSCAN1'
p4755
S'2.79e-03'
p4756
S'6.64e-01'
p4757
tp4758
as.